(lp0
(dp1
S'reactions'
p2
(dp3
S'rxn09142_c'
p4
(dp5
S'reaction'
p6
V/chenry/public/modelsupport/templates/GramPositive.modeltemplate||/reactions/id/rxn09142_c
p7
sS'direction'
p8
V<
p9
sS'compartment'
p10
S'c'
p11
ssS'rxn10293_c'
p12
(dp13
g6
V/chenry/public/modelsupport/templates/GramPositive.modeltemplate||/reactions/id/rxn10293_c
p14
sg8
V>
p15
sg10
g11
ssS'rxn05382_c'
p16
(dp17
g6
V/chenry/public/modelsupport/templates/GramPositive.modeltemplate||/reactions/id/rxn05382_c
p18
sg8
g15
sg10
g11
ssS'rxn05376_c'
p19
(dp20
g6
V/chenry/public/modelsupport/templates/GramPositive.modeltemplate||/reactions/id/rxn05376_c
p21
sg8
g15
sg10
g11
ssS'rxn08333_c'
p22
(dp23
g6
V/chenry/public/modelsupport/templates/GramPositive.modeltemplate||/reactions/id/rxn08333_c
p24
sg8
g15
sg10
g11
ssS'rxn00620_c'
p25
(dp26
g6
V/chenry/public/modelsupport/templates/GramPositive.modeltemplate||/reactions/id/rxn00620_c
p27
sg8
g9
sg10
g11
ssS'rxn00806_c'
p28
(dp29
g6
V/chenry/public/modelsupport/templates/GramPositive.modeltemplate||/reactions/id/rxn00806_c
p30
sg8
g15
sg10
g11
ssS'rxn10338_c'
p31
(dp32
g6
V/chenry/public/modelsupport/templates/GramPositive.modeltemplate||/reactions/id/rxn10338_c
p33
sg8
g15
sg10
g11
ssS'rxn08669_c'
p34
(dp35
g6
V/chenry/public/modelsupport/templates/GramPositive.modeltemplate||/reactions/id/rxn08669_c
p36
sg8
g9
sg10
g11
ssS'rxn05365_c'
p37
(dp38
g6
V/chenry/public/modelsupport/templates/GramPositive.modeltemplate||/reactions/id/rxn05365_c
p39
sg8
g15
sg10
g11
ssS'rxn00117_c'
p40
(dp41
g6
V/chenry/public/modelsupport/templates/GramPositive.modeltemplate||/reactions/id/rxn00117_c
p42
sg8
g15
sg10
g11
ssS'rxn12225_c'
p43
(dp44
g6
V/chenry/public/modelsupport/templates/GramPositive.modeltemplate||/reactions/id/rxn12225_c
p45
sg8
g15
sg10
g11
ssS'rxn05380_c'
p46
(dp47
g6
V/chenry/public/modelsupport/templates/GramPositive.modeltemplate||/reactions/id/rxn05380_c
p48
sg8
g15
sg10
g11
ssS'rxn09149_c'
p49
(dp50
g6
V/chenry/public/modelsupport/templates/GramPositive.modeltemplate||/reactions/id/rxn09149_c
p51
sg8
g9
sg10
g11
ssS'rxn02286_c'
p52
(dp53
g6
V/chenry/public/modelsupport/templates/GramPositive.modeltemplate||/reactions/id/rxn02286_c
p54
sg8
g15
sg10
g11
ssS'rxn10301_c'
p55
(dp56
g6
V/chenry/public/modelsupport/templates/GramPositive.modeltemplate||/reactions/id/rxn10301_c
p57
sg8
g15
sg10
g11
ssS'rxn10161_c'
p58
(dp59
g6
V/chenry/public/modelsupport/templates/GramPositive.modeltemplate||/reactions/id/rxn10161_c
p60
sg8
g15
sg10
g11
ssS'rxn08764_c'
p61
(dp62
g6
V/chenry/public/modelsupport/templates/GramPositive.modeltemplate||/reactions/id/rxn08764_c
p63
sg8
g15
sg10
g11
ssS'rxn09177_c'
p64
(dp65
g6
V/chenry/public/modelsupport/templates/GramPositive.modeltemplate||/reactions/id/rxn09177_c
p66
sg8
g9
sg10
g11
ssS'rxn00851_c'
p67
(dp68
g6
V/chenry/public/modelsupport/templates/GramPositive.modeltemplate||/reactions/id/rxn00851_c
p69
sg8
g15
sg10
g11
ssS'rxn10094_c'
p70
(dp71
g6
V/chenry/public/modelsupport/templates/GramPositive.modeltemplate||/reactions/id/rxn10094_c
p72
sg8
g15
sg10
g11
ssS'rxn05436_c'
p73
(dp74
g6
V/chenry/public/modelsupport/templates/GramPositive.modeltemplate||/reactions/id/rxn05436_c
p75
sg8
g15
sg10
g11
ssS'rxn01073_c'
p76
(dp77
g6
V/chenry/public/modelsupport/templates/GramPositive.modeltemplate||/reactions/id/rxn01073_c
p78
sg8
g9
sg10
g11
ssS'rxn05360_c'
p79
(dp80
g6
V/chenry/public/modelsupport/templates/GramPositive.modeltemplate||/reactions/id/rxn05360_c
p81
sg8
g15
sg10
g11
ssS'rxn05406_c'
p82
(dp83
g6
V/chenry/public/modelsupport/templates/GramPositive.modeltemplate||/reactions/id/rxn05406_c
p84
sg8
g15
sg10
g11
ssS'rxn01520_c'
p85
(dp86
g6
V/chenry/public/modelsupport/templates/GramPositive.modeltemplate||/reactions/id/rxn01520_c
p87
sg8
g15
sg10
g11
ssS'rxn00712_c'
p88
(dp89
g6
V/chenry/public/modelsupport/templates/GramPositive.modeltemplate||/reactions/id/rxn00712_c
p90
sg8
g9
sg10
g11
ssS'rxn05372_c'
p91
(dp92
g6
V/chenry/public/modelsupport/templates/GramPositive.modeltemplate||/reactions/id/rxn05372_c
p93
sg8
g15
sg10
g11
ssS'rxn00224_c'
p94
(dp95
g6
V/chenry/public/modelsupport/templates/GramPositive.modeltemplate||/reactions/id/rxn00224_c
p96
sg8
g9
sg10
g11
ssS'rxn03395_c'
p97
(dp98
g6
V/chenry/public/modelsupport/templates/GramPositive.modeltemplate||/reactions/id/rxn03395_c
p99
sg8
g15
sg10
g11
ssS'rxn10192_c'
p100
(dp101
g6
V/chenry/public/modelsupport/templates/GramPositive.modeltemplate||/reactions/id/rxn10192_c
p102
sg8
g15
sg10
g11
ssS'rxn00926_c'
p103
(dp104
g6
V/chenry/public/modelsupport/templates/GramPositive.modeltemplate||/reactions/id/rxn00926_c
p105
sg8
g9
sg10
g11
ssS'rxn05364_c'
p106
(dp107
g6
V/chenry/public/modelsupport/templates/GramPositive.modeltemplate||/reactions/id/rxn05364_c
p108
sg8
g15
sg10
g11
ssS'rxn10309_c'
p109
(dp110
g6
V/chenry/public/modelsupport/templates/GramPositive.modeltemplate||/reactions/id/rxn10309_c
p111
sg8
g15
sg10
g11
ssS'rxn05366_c'
p112
(dp113
g6
V/chenry/public/modelsupport/templates/GramPositive.modeltemplate||/reactions/id/rxn05366_c
p114
sg8
g15
sg10
g11
ssS'rxn00830_c'
p115
(dp116
g6
V/chenry/public/modelsupport/templates/GramPositive.modeltemplate||/reactions/id/rxn00830_c
p117
sg8
g9
sg10
g11
ssS'rxn03393_c'
p118
(dp119
g6
V/chenry/public/modelsupport/templates/GramPositive.modeltemplate||/reactions/id/rxn03393_c
p120
sg8
g15
sg10
g11
ssS'rxn10194_c'
p121
(dp122
g6
V/chenry/public/modelsupport/templates/GramPositive.modeltemplate||/reactions/id/rxn10194_c
p123
sg8
g15
sg10
g11
ssS'rxn13661_c'
p124
(dp125
g6
V/chenry/public/modelsupport/templates/GramPositive.modeltemplate||/reactions/id/rxn13661_c
p126
sg8
g9
sg10
g11
ssS'rxn10337_c'
p127
(dp128
g6
V/chenry/public/modelsupport/templates/GramPositive.modeltemplate||/reactions/id/rxn10337_c
p129
sg8
g15
sg10
g11
ssS'rxn05377_c'
p130
(dp131
g6
V/chenry/public/modelsupport/templates/GramPositive.modeltemplate||/reactions/id/rxn05377_c
p132
sg8
g15
sg10
g11
ssS'rxn05381_c'
p133
(dp134
g6
V/chenry/public/modelsupport/templates/GramPositive.modeltemplate||/reactions/id/rxn05381_c
p135
sg8
g15
sg10
g11
ssS'rxn05398_c'
p136
(dp137
g6
V/chenry/public/modelsupport/templates/GramPositive.modeltemplate||/reactions/id/rxn05398_c
p138
sg8
g15
sg10
g11
ssS'rxn05618_c'
p139
(dp140
g6
V/chenry/public/modelsupport/templates/GramPositive.modeltemplate||/reactions/id/rxn05618_c
p141
sg8
g15
sg10
g11
ssS'rxn10215_c'
p142
(dp143
g6
V/chenry/public/modelsupport/templates/GramPositive.modeltemplate||/reactions/id/rxn10215_c
p144
sg8
g15
sg10
g11
ssS'rxn10292_c'
p145
(dp146
g6
V/chenry/public/modelsupport/templates/GramPositive.modeltemplate||/reactions/id/rxn10292_c
p147
sg8
g15
sg10
g11
ssS'rxn02056_c'
p148
(dp149
g6
V/chenry/public/modelsupport/templates/GramPositive.modeltemplate||/reactions/id/rxn02056_c
p150
sg8
g9
sg10
g11
ssS'rxn02304_c'
p151
(dp152
g6
V/chenry/public/modelsupport/templates/GramPositive.modeltemplate||/reactions/id/rxn02304_c
p153
sg8
g9
sg10
g11
ssS'rxn11946_c'
p154
(dp155
g6
V/chenry/public/modelsupport/templates/GramPositive.modeltemplate||/reactions/id/rxn11946_c
p156
sg8
g15
sg10
g11
ssS'rxn05435_c'
p157
(dp158
g6
V/chenry/public/modelsupport/templates/GramPositive.modeltemplate||/reactions/id/rxn05435_c
p159
sg8
g15
sg10
g11
ssS'rxn02269_c'
p160
(dp161
g6
V/chenry/public/modelsupport/templates/GramPositive.modeltemplate||/reactions/id/rxn02269_c
p162
sg8
g15
sg10
g11
ssS'rxn05373_c'
p163
(dp164
g6
V/chenry/public/modelsupport/templates/GramPositive.modeltemplate||/reactions/id/rxn05373_c
p165
sg8
g15
sg10
g11
ssS'rxn10232_c'
p166
(dp167
g6
V/chenry/public/modelsupport/templates/GramPositive.modeltemplate||/reactions/id/rxn10232_c
p168
sg8
g15
sg10
g11
ssS'rxn05669_c'
p169
(dp170
g6
V/chenry/public/modelsupport/templates/GramPositive.modeltemplate||/reactions/id/rxn05669_c
p171
sg8
g15
sg10
g11
ssS'rxn02290_c'
p172
(dp173
g6
V/chenry/public/modelsupport/templates/GramPositive.modeltemplate||/reactions/id/rxn02290_c
p174
sg8
g9
sg10
g11
ssS'rxn10265_c'
p175
(dp176
g6
V/chenry/public/modelsupport/templates/GramPositive.modeltemplate||/reactions/id/rxn10265_c
p177
sg8
g15
sg10
g11
ssS'rxn05405_c'
p178
(dp179
g6
V/chenry/public/modelsupport/templates/GramPositive.modeltemplate||/reactions/id/rxn05405_c
p180
sg8
g15
sg10
g11
ssS'rxn05361_c'
p181
(dp182
g6
V/chenry/public/modelsupport/templates/GramPositive.modeltemplate||/reactions/id/rxn05361_c
p183
sg8
g15
sg10
g11
ssS'rxn12008_c'
p184
(dp185
g6
V/chenry/public/modelsupport/templates/GramPositive.modeltemplate||/reactions/id/rxn12008_c
p186
sg8
g9
sg10
g11
ssS'rxn05401_c'
p187
(dp188
g6
V/chenry/public/modelsupport/templates/GramPositive.modeltemplate||/reactions/id/rxn05401_c
p189
sg8
g15
sg10
g11
ssS'rxn05255_c'
p190
(dp191
g6
V/chenry/public/modelsupport/templates/GramPositive.modeltemplate||/reactions/id/rxn05255_c
p192
sg8
g15
sg10
g11
ssS'rxn05407_c'
p193
(dp194
g6
V/chenry/public/modelsupport/templates/GramPositive.modeltemplate||/reactions/id/rxn05407_c
p195
sg8
g15
sg10
g11
ssS'rxn03397_c'
p196
(dp197
g6
V/chenry/public/modelsupport/templates/GramPositive.modeltemplate||/reactions/id/rxn03397_c
p198
sg8
g15
sg10
g11
ssS'rxn12664_c'
p199
(dp200
g6
V/chenry/public/modelsupport/templates/GramPositive.modeltemplate||/reactions/id/rxn12664_c
p201
sg8
g15
sg10
g11
ssS'rxn10311_c'
p202
(dp203
g6
V/chenry/public/modelsupport/templates/GramPositive.modeltemplate||/reactions/id/rxn10311_c
p204
sg8
g15
sg10
g11
ssS'rxn05369_c'
p205
(dp206
g6
V/chenry/public/modelsupport/templates/GramPositive.modeltemplate||/reactions/id/rxn05369_c
p207
sg8
g15
sg10
g11
ssS'rxn10193_c'
p208
(dp209
g6
V/chenry/public/modelsupport/templates/GramPositive.modeltemplate||/reactions/id/rxn10193_c
p210
sg8
g15
sg10
g11
ssS'rxn04147_c'
p211
(dp212
g6
V/chenry/public/modelsupport/templates/GramPositive.modeltemplate||/reactions/id/rxn04147_c
p213
sg8
g9
sg10
g11
ssS'rxn03150_c'
p214
(dp215
g6
V/chenry/public/modelsupport/templates/GramPositive.modeltemplate||/reactions/id/rxn03150_c
p216
sg8
g15
sg10
g11
ssS'rxn10336_c'
p217
(dp218
g6
V/chenry/public/modelsupport/templates/GramPositive.modeltemplate||/reactions/id/rxn10336_c
p219
sg8
g15
sg10
g11
ssS'rxn10195_c'
p220
(dp221
g6
V/chenry/public/modelsupport/templates/GramPositive.modeltemplate||/reactions/id/rxn10195_c
p222
sg8
g15
sg10
g11
ssS'rxn09135_c'
p223
(dp224
g6
V/chenry/public/modelsupport/templates/GramPositive.modeltemplate||/reactions/id/rxn09135_c
p225
sg8
g9
sg10
g11
ssS'rxn05386_c'
p226
(dp227
g6
V/chenry/public/modelsupport/templates/GramPositive.modeltemplate||/reactions/id/rxn05386_c
p228
sg8
g15
sg10
g11
ssS'rxn10197_c'
p229
(dp230
g6
V/chenry/public/modelsupport/templates/GramPositive.modeltemplate||/reactions/id/rxn10197_c
p231
sg8
g15
sg10
g11
ssS'rxn05442_c'
p232
(dp233
g6
V/chenry/public/modelsupport/templates/GramPositive.modeltemplate||/reactions/id/rxn05442_c
p234
sg8
g15
sg10
g11
ssS'rxn03893_c'
p235
(dp236
g6
V/chenry/public/modelsupport/templates/GramPositive.modeltemplate||/reactions/id/rxn03893_c
p237
sg8
g15
sg10
g11
ssS'rxn05402_c'
p238
(dp239
g6
V/chenry/public/modelsupport/templates/GramPositive.modeltemplate||/reactions/id/rxn05402_c
p240
sg8
g15
sg10
g11
ssS'rxn05029_c'
p241
(dp242
g6
V/chenry/public/modelsupport/templates/GramPositive.modeltemplate||/reactions/id/rxn05029_c
p243
sg8
g15
sg10
g11
ssS'rxn05144_c'
p244
(dp245
g6
V/chenry/public/modelsupport/templates/GramPositive.modeltemplate||/reactions/id/rxn05144_c
p246
sg8
g15
sg10
g11
ssS'rxn05315_c'
p247
(dp248
g6
V/chenry/public/modelsupport/templates/GramPositive.modeltemplate||/reactions/id/rxn05315_c
p249
sg8
g9
sg10
g11
ssS'rxn10832_c'
p250
(dp251
g6
V/chenry/public/modelsupport/templates/GramPositive.modeltemplate||/reactions/id/rxn10832_c
p252
sg8
g15
sg10
g11
ssS'rxn05397_c'
p253
(dp254
g6
V/chenry/public/modelsupport/templates/GramPositive.modeltemplate||/reactions/id/rxn05397_c
p255
sg8
g15
sg10
g11
ssS'rxn05651_c'
p256
(dp257
g6
V/chenry/public/modelsupport/templates/GramPositive.modeltemplate||/reactions/id/rxn05651_c
p258
sg8
g15
sg10
g11
ssS'rxn10233_c'
p259
(dp260
g6
V/chenry/public/modelsupport/templates/GramPositive.modeltemplate||/reactions/id/rxn10233_c
p261
sg8
g15
sg10
g11
ssS'rxn02011_c'
p262
(dp263
g6
V/chenry/public/modelsupport/templates/GramPositive.modeltemplate||/reactions/id/rxn02011_c
p264
sg8
g15
sg10
g11
ssS'rxn00137_c'
p265
(dp266
g6
V/chenry/public/modelsupport/templates/GramPositive.modeltemplate||/reactions/id/rxn00137_c
p267
sg8
g15
sg10
g11
ssS'rxn05391_c'
p268
(dp269
g6
V/chenry/public/modelsupport/templates/GramPositive.modeltemplate||/reactions/id/rxn05391_c
p270
sg8
g15
sg10
g11
ssS'rxn10227_c'
p271
(dp272
g6
V/chenry/public/modelsupport/templates/GramPositive.modeltemplate||/reactions/id/rxn10227_c
p273
sg8
g15
sg10
g11
ssS'rxn03852_c'
p274
(dp275
g6
V/chenry/public/modelsupport/templates/GramPositive.modeltemplate||/reactions/id/rxn03852_c
p276
sg8
g15
sg10
g11
ssS'rxn10205_c'
p277
(dp278
g6
V/chenry/public/modelsupport/templates/GramPositive.modeltemplate||/reactions/id/rxn10205_c
p279
sg8
g15
sg10
g11
ssS'rxn05393_c'
p280
(dp281
g6
V/chenry/public/modelsupport/templates/GramPositive.modeltemplate||/reactions/id/rxn05393_c
p282
sg8
g15
sg10
g11
ssS'rxn05389_c'
p283
(dp284
g6
V/chenry/public/modelsupport/templates/GramPositive.modeltemplate||/reactions/id/rxn05389_c
p285
sg8
g15
sg10
g11
ssS'rxn05175_c'
p286
(dp287
g6
V/chenry/public/modelsupport/templates/GramPositive.modeltemplate||/reactions/id/rxn05175_c
p288
sg8
g15
sg10
g11
ssS'rxn05385_c'
p289
(dp290
g6
V/chenry/public/modelsupport/templates/GramPositive.modeltemplate||/reactions/id/rxn05385_c
p291
sg8
g15
sg10
g11
ssS'rxn10226_c'
p292
(dp293
g6
V/chenry/public/modelsupport/templates/GramPositive.modeltemplate||/reactions/id/rxn10226_c
p294
sg8
g15
sg10
g11
ssS'rxn10266_c'
p295
(dp296
g6
V/chenry/public/modelsupport/templates/GramPositive.modeltemplate||/reactions/id/rxn10266_c
p297
sg8
g15
sg10
g11
ssS'rxn08040_c'
p298
(dp299
g6
V/chenry/public/modelsupport/templates/GramPositive.modeltemplate||/reactions/id/rxn08040_c
p300
sg8
g15
sg10
g11
ssS'rxn05441_c'
p301
(dp302
g6
V/chenry/public/modelsupport/templates/GramPositive.modeltemplate||/reactions/id/rxn05441_c
p303
sg8
g15
sg10
g11
ssS'rxn12224_c'
p304
(dp305
g6
V/chenry/public/modelsupport/templates/GramPositive.modeltemplate||/reactions/id/rxn12224_c
p306
sg8
g15
sg10
g11
ssS'rxn12860_c'
p307
(dp308
g6
V/chenry/public/modelsupport/templates/GramPositive.modeltemplate||/reactions/id/rxn12860_c
p309
sg8
g15
sg10
g11
ssS'rxn10214_c'
p310
(dp311
g6
V/chenry/public/modelsupport/templates/GramPositive.modeltemplate||/reactions/id/rxn10214_c
p312
sg8
g15
sg10
g11
ssS'rxn05368_c'
p313
(dp314
g6
V/chenry/public/modelsupport/templates/GramPositive.modeltemplate||/reactions/id/rxn05368_c
p315
sg8
g15
sg10
g11
ssS'rxn02063_c'
p316
(dp317
g6
V/chenry/public/modelsupport/templates/GramPositive.modeltemplate||/reactions/id/rxn02063_c
p318
sg8
g9
sg10
g11
ssS'rxn05267_c'
p319
(dp320
g6
V/chenry/public/modelsupport/templates/GramPositive.modeltemplate||/reactions/id/rxn05267_c
p321
sg8
g9
sg10
g11
ssS'rxn05443_c'
p322
(dp323
g6
V/chenry/public/modelsupport/templates/GramPositive.modeltemplate||/reactions/id/rxn05443_c
p324
sg8
g15
sg10
g11
ssS'rxn10310_c'
p325
(dp326
g6
V/chenry/public/modelsupport/templates/GramPositive.modeltemplate||/reactions/id/rxn10310_c
p327
sg8
g15
sg10
g11
ssS'rxn10196_c'
p328
(dp329
g6
V/chenry/public/modelsupport/templates/GramPositive.modeltemplate||/reactions/id/rxn10196_c
p330
sg8
g15
sg10
g11
ssS'rxn10291_c'
p331
(dp332
g6
V/chenry/public/modelsupport/templates/GramPositive.modeltemplate||/reactions/id/rxn10291_c
p333
sg8
g15
sg10
g11
ssS'rxn05433_c'
p334
(dp335
g6
V/chenry/public/modelsupport/templates/GramPositive.modeltemplate||/reactions/id/rxn05433_c
p336
sg8
g15
sg10
g11
ssS'rxn10145_c'
p337
(dp338
g6
V/chenry/public/modelsupport/templates/GramPositive.modeltemplate||/reactions/id/rxn10145_c
p339
sg8
g15
sg10
g11
ssS'rxn05390_c'
p340
(dp341
g6
V/chenry/public/modelsupport/templates/GramPositive.modeltemplate||/reactions/id/rxn05390_c
p342
sg8
g15
sg10
g11
ssS'rxn04139_c'
p343
(dp344
g6
V/chenry/public/modelsupport/templates/GramPositive.modeltemplate||/reactions/id/rxn04139_c
p345
sg8
g15
sg10
g11
ssS'rxn05387_c'
p346
(dp347
g6
V/chenry/public/modelsupport/templates/GramPositive.modeltemplate||/reactions/id/rxn05387_c
p348
sg8
g15
sg10
g11
ssS'rxn10300_c'
p349
(dp350
g6
V/chenry/public/modelsupport/templates/GramPositive.modeltemplate||/reactions/id/rxn10300_c
p351
sg8
g15
sg10
g11
ssS'rxn10302_c'
p352
(dp353
g6
V/chenry/public/modelsupport/templates/GramPositive.modeltemplate||/reactions/id/rxn10302_c
p354
sg8
g15
sg10
g11
ssS'rxn01213_c'
p355
(dp356
g6
V/chenry/public/modelsupport/templates/GramPositive.modeltemplate||/reactions/id/rxn01213_c
p357
sg8
g9
sg10
g11
ssS'rxn05148_c'
p358
(dp359
g6
V/chenry/public/modelsupport/templates/GramPositive.modeltemplate||/reactions/id/rxn05148_c
p360
sg8
g15
sg10
g11
ssS'rxn02774_c'
p361
(dp362
g6
V/chenry/public/modelsupport/templates/GramPositive.modeltemplate||/reactions/id/rxn02774_c
p363
sg8
g15
sg10
g11
ssS'rxn05437_c'
p364
(dp365
g6
V/chenry/public/modelsupport/templates/GramPositive.modeltemplate||/reactions/id/rxn05437_c
p366
sg8
g15
sg10
g11
ssS'rxn10206_c'
p367
(dp368
g6
V/chenry/public/modelsupport/templates/GramPositive.modeltemplate||/reactions/id/rxn10206_c
p369
sg8
g15
sg10
g11
ssS'rxn03164_c'
p370
(dp371
g6
V/chenry/public/modelsupport/templates/GramPositive.modeltemplate||/reactions/id/rxn03164_c
p372
sg8
g15
sg10
g11
ssS'rxn00963_c'
p373
(dp374
g6
V/chenry/public/modelsupport/templates/GramPositive.modeltemplate||/reactions/id/rxn00963_c
p375
sg8
g9
sg10
g11
ssS'rxn05244_c'
p376
(dp377
g6
V/chenry/public/modelsupport/templates/GramPositive.modeltemplate||/reactions/id/rxn05244_c
p378
sg8
g15
sg10
g11
ssS'rxn08976_c'
p379
(dp380
g6
V/chenry/public/modelsupport/templates/GramPositive.modeltemplate||/reactions/id/rxn08976_c
p381
sg8
g9
sg10
g11
ssS'rxn05394_c'
p382
(dp383
g6
V/chenry/public/modelsupport/templates/GramPositive.modeltemplate||/reactions/id/rxn05394_c
p384
sg8
g15
sg10
g11
ssS'rxn05514_c'
p385
(dp386
g6
V/chenry/public/modelsupport/templates/GramPositive.modeltemplate||/reactions/id/rxn05514_c
p387
sg8
g9
sg10
g11
ssS'rxn01207_c'
p388
(dp389
g6
V/chenry/public/modelsupport/templates/GramPositive.modeltemplate||/reactions/id/rxn01207_c
p390
sg8
g15
sg10
g11
ssS'rxn02288_c'
p391
(dp392
g6
V/chenry/public/modelsupport/templates/GramPositive.modeltemplate||/reactions/id/rxn02288_c
p393
sg8
g9
sg10
g11
ssS'rxn01466_c'
p394
(dp395
g6
V/chenry/public/modelsupport/templates/GramPositive.modeltemplate||/reactions/id/rxn01466_c
p396
sg8
g9
sg10
g11
ssS'rxn09674_c'
p397
(dp398
g6
V/chenry/public/modelsupport/templates/GramPositive.modeltemplate||/reactions/id/rxn09674_c
p399
sg8
g15
sg10
g11
sssS'rundate'
p400
V2018-06-18T18:03:28Z
p401
sS'media_ref'
p402
V/chenry/public/modelsupport/patric-media/Complete
p403
sS'integrated'
p404
I1
sS'integrated_solution'
p405
I0
sS'ref'
p406
V/tjmoutinho@patricbrc.org/home/models/.272563.8/gapfilling/gf.2
p407
sS'id'
p408
Vgf.2
p409
sa(dp410
g2
(dp411
S'rxn09142_c'
p412
(dp413
g6
V/chenry/public/modelsupport/templates/GramPositive.modeltemplate||/reactions/id/rxn09142_c
p414
sg8
g9
sg10
g11
ssS'rxn10293_c'
p415
(dp416
g6
V/chenry/public/modelsupport/templates/GramPositive.modeltemplate||/reactions/id/rxn10293_c
p417
sg8
g15
sg10
g11
ssS'rxn05382_c'
p418
(dp419
g6
V/chenry/public/modelsupport/templates/GramPositive.modeltemplate||/reactions/id/rxn05382_c
p420
sg8
g15
sg10
g11
ssS'rxn05376_c'
p421
(dp422
g6
V/chenry/public/modelsupport/templates/GramPositive.modeltemplate||/reactions/id/rxn05376_c
p423
sg8
g15
sg10
g11
ssS'rxn08333_c'
p424
(dp425
g6
V/chenry/public/modelsupport/templates/GramPositive.modeltemplate||/reactions/id/rxn08333_c
p426
sg8
g15
sg10
g11
ssS'rxn00620_c'
p427
(dp428
g6
V/chenry/public/modelsupport/templates/GramPositive.modeltemplate||/reactions/id/rxn00620_c
p429
sg8
g9
sg10
g11
ssS'rxn00806_c'
p430
(dp431
g6
V/chenry/public/modelsupport/templates/GramPositive.modeltemplate||/reactions/id/rxn00806_c
p432
sg8
g15
sg10
g11
ssS'rxn02269_c'
p433
(dp434
g6
V/chenry/public/modelsupport/templates/GramPositive.modeltemplate||/reactions/id/rxn02269_c
p435
sg8
g15
sg10
g11
ssS'rxn13661_c'
p436
(dp437
g6
V/chenry/public/modelsupport/templates/GramPositive.modeltemplate||/reactions/id/rxn13661_c
p438
sg8
g9
sg10
g11
ssS'rxn05365_c'
p439
(dp440
g6
V/chenry/public/modelsupport/templates/GramPositive.modeltemplate||/reactions/id/rxn05365_c
p441
sg8
g15
sg10
g11
ssS'rxn00117_c'
p442
(dp443
g6
V/chenry/public/modelsupport/templates/GramPositive.modeltemplate||/reactions/id/rxn00117_c
p444
sg8
g15
sg10
g11
ssS'rxn12225_c'
p445
(dp446
g6
V/chenry/public/modelsupport/templates/GramPositive.modeltemplate||/reactions/id/rxn12225_c
p447
sg8
g15
sg10
g11
ssS'rxn05380_c'
p448
(dp449
g6
V/chenry/public/modelsupport/templates/GramPositive.modeltemplate||/reactions/id/rxn05380_c
p450
sg8
g15
sg10
g11
ssS'rxn09149_c'
p451
(dp452
g6
V/chenry/public/modelsupport/templates/GramPositive.modeltemplate||/reactions/id/rxn09149_c
p453
sg8
g9
sg10
g11
ssS'rxn02286_c'
p454
(dp455
g6
V/chenry/public/modelsupport/templates/GramPositive.modeltemplate||/reactions/id/rxn02286_c
p456
sg8
g15
sg10
g11
ssS'rxn10301_c'
p457
(dp458
g6
V/chenry/public/modelsupport/templates/GramPositive.modeltemplate||/reactions/id/rxn10301_c
p459
sg8
g15
sg10
g11
ssS'rxn10161_c'
p460
(dp461
g6
V/chenry/public/modelsupport/templates/GramPositive.modeltemplate||/reactions/id/rxn10161_c
p462
sg8
g15
sg10
g11
ssS'rxn08764_c'
p463
(dp464
g6
V/chenry/public/modelsupport/templates/GramPositive.modeltemplate||/reactions/id/rxn08764_c
p465
sg8
g15
sg10
g11
ssS'rxn09177_c'
p466
(dp467
g6
V/chenry/public/modelsupport/templates/GramPositive.modeltemplate||/reactions/id/rxn09177_c
p468
sg8
g9
sg10
g11
ssS'rxn00851_c'
p469
(dp470
g6
V/chenry/public/modelsupport/templates/GramPositive.modeltemplate||/reactions/id/rxn00851_c
p471
sg8
g15
sg10
g11
ssS'rxn10094_c'
p472
(dp473
g6
V/chenry/public/modelsupport/templates/GramPositive.modeltemplate||/reactions/id/rxn10094_c
p474
sg8
g15
sg10
g11
ssS'rxn05436_c'
p475
(dp476
g6
V/chenry/public/modelsupport/templates/GramPositive.modeltemplate||/reactions/id/rxn05436_c
p477
sg8
g15
sg10
g11
ssS'rxn01073_c'
p478
(dp479
g6
V/chenry/public/modelsupport/templates/GramPositive.modeltemplate||/reactions/id/rxn01073_c
p480
sg8
g9
sg10
g11
ssS'rxn05360_c'
p481
(dp482
g6
V/chenry/public/modelsupport/templates/GramPositive.modeltemplate||/reactions/id/rxn05360_c
p483
sg8
g15
sg10
g11
ssS'rxn05406_c'
p484
(dp485
g6
V/chenry/public/modelsupport/templates/GramPositive.modeltemplate||/reactions/id/rxn05406_c
p486
sg8
g15
sg10
g11
ssS'rxn01520_c'
p487
(dp488
g6
V/chenry/public/modelsupport/templates/GramPositive.modeltemplate||/reactions/id/rxn01520_c
p489
sg8
g15
sg10
g11
ssS'rxn00712_c'
p490
(dp491
g6
V/chenry/public/modelsupport/templates/GramPositive.modeltemplate||/reactions/id/rxn00712_c
p492
sg8
g9
sg10
g11
ssS'rxn05362_c'
p493
(dp494
g6
V/chenry/public/modelsupport/templates/GramPositive.modeltemplate||/reactions/id/rxn05362_c
p495
sg8
g15
sg10
g11
ssS'rxn05372_c'
p496
(dp497
g6
V/chenry/public/modelsupport/templates/GramPositive.modeltemplate||/reactions/id/rxn05372_c
p498
sg8
g15
sg10
g11
ssS'rxn00224_c'
p499
(dp500
g6
V/chenry/public/modelsupport/templates/GramPositive.modeltemplate||/reactions/id/rxn00224_c
p501
sg8
g9
sg10
g11
ssS'rxn10338_c'
p502
(dp503
g6
V/chenry/public/modelsupport/templates/GramPositive.modeltemplate||/reactions/id/rxn10338_c
p504
sg8
g15
sg10
g11
ssS'rxn03395_c'
p505
(dp506
g6
V/chenry/public/modelsupport/templates/GramPositive.modeltemplate||/reactions/id/rxn03395_c
p507
sg8
g15
sg10
g11
ssS'rxn10192_c'
p508
(dp509
g6
V/chenry/public/modelsupport/templates/GramPositive.modeltemplate||/reactions/id/rxn10192_c
p510
sg8
g15
sg10
g11
ssS'rxn00926_c'
p511
(dp512
g6
V/chenry/public/modelsupport/templates/GramPositive.modeltemplate||/reactions/id/rxn00926_c
p513
sg8
g9
sg10
g11
ssS'rxn05364_c'
p514
(dp515
g6
V/chenry/public/modelsupport/templates/GramPositive.modeltemplate||/reactions/id/rxn05364_c
p516
sg8
g15
sg10
g11
ssS'rxn10309_c'
p517
(dp518
g6
V/chenry/public/modelsupport/templates/GramPositive.modeltemplate||/reactions/id/rxn10309_c
p519
sg8
g15
sg10
g11
ssS'rxn05366_c'
p520
(dp521
g6
V/chenry/public/modelsupport/templates/GramPositive.modeltemplate||/reactions/id/rxn05366_c
p522
sg8
g15
sg10
g11
ssS'rxn00830_c'
p523
(dp524
g6
V/chenry/public/modelsupport/templates/GramPositive.modeltemplate||/reactions/id/rxn00830_c
p525
sg8
g9
sg10
g11
ssS'rxn03393_c'
p526
(dp527
g6
V/chenry/public/modelsupport/templates/GramPositive.modeltemplate||/reactions/id/rxn03393_c
p528
sg8
g15
sg10
g11
ssS'rxn10194_c'
p529
(dp530
g6
V/chenry/public/modelsupport/templates/GramPositive.modeltemplate||/reactions/id/rxn10194_c
p531
sg8
g15
sg10
g11
ssS'rxn08669_c'
p532
(dp533
g6
V/chenry/public/modelsupport/templates/GramPositive.modeltemplate||/reactions/id/rxn08669_c
p534
sg8
g9
sg10
g11
ssS'rxn10337_c'
p535
(dp536
g6
V/chenry/public/modelsupport/templates/GramPositive.modeltemplate||/reactions/id/rxn10337_c
p537
sg8
g15
sg10
g11
ssS'rxn05377_c'
p538
(dp539
g6
V/chenry/public/modelsupport/templates/GramPositive.modeltemplate||/reactions/id/rxn05377_c
p540
sg8
g15
sg10
g11
ssS'rxn05381_c'
p541
(dp542
g6
V/chenry/public/modelsupport/templates/GramPositive.modeltemplate||/reactions/id/rxn05381_c
p543
sg8
g15
sg10
g11
ssS'rxn05398_c'
p544
(dp545
g6
V/chenry/public/modelsupport/templates/GramPositive.modeltemplate||/reactions/id/rxn05398_c
p546
sg8
g15
sg10
g11
ssS'rxn05618_c'
p547
(dp548
g6
V/chenry/public/modelsupport/templates/GramPositive.modeltemplate||/reactions/id/rxn05618_c
p549
sg8
g15
sg10
g11
ssS'rxn10215_c'
p550
(dp551
g6
V/chenry/public/modelsupport/templates/GramPositive.modeltemplate||/reactions/id/rxn10215_c
p552
sg8
g15
sg10
g11
ssS'rxn10266_c'
p553
(dp554
g6
V/chenry/public/modelsupport/templates/GramPositive.modeltemplate||/reactions/id/rxn10266_c
p555
sg8
g15
sg10
g11
ssS'rxn10292_c'
p556
(dp557
g6
V/chenry/public/modelsupport/templates/GramPositive.modeltemplate||/reactions/id/rxn10292_c
p558
sg8
g15
sg10
g11
ssS'rxn02056_c'
p559
(dp560
g6
V/chenry/public/modelsupport/templates/GramPositive.modeltemplate||/reactions/id/rxn02056_c
p561
sg8
g9
sg10
g11
ssS'rxn02304_c'
p562
(dp563
g6
V/chenry/public/modelsupport/templates/GramPositive.modeltemplate||/reactions/id/rxn02304_c
p564
sg8
g9
sg10
g11
ssS'rxn11946_c'
p565
(dp566
g6
V/chenry/public/modelsupport/templates/GramPositive.modeltemplate||/reactions/id/rxn11946_c
p567
sg8
g15
sg10
g11
ssS'rxn05435_c'
p568
(dp569
g6
V/chenry/public/modelsupport/templates/GramPositive.modeltemplate||/reactions/id/rxn05435_c
p570
sg8
g15
sg10
g11
ssS'rxn05373_c'
p571
(dp572
g6
V/chenry/public/modelsupport/templates/GramPositive.modeltemplate||/reactions/id/rxn05373_c
p573
sg8
g15
sg10
g11
ssS'rxn10232_c'
p574
(dp575
g6
V/chenry/public/modelsupport/templates/GramPositive.modeltemplate||/reactions/id/rxn10232_c
p576
sg8
g15
sg10
g11
ssS'rxn05669_c'
p577
(dp578
g6
V/chenry/public/modelsupport/templates/GramPositive.modeltemplate||/reactions/id/rxn05669_c
p579
sg8
g15
sg10
g11
ssS'rxn02290_c'
p580
(dp581
g6
V/chenry/public/modelsupport/templates/GramPositive.modeltemplate||/reactions/id/rxn02290_c
p582
sg8
g9
sg10
g11
ssS'rxn05378_c'
p583
(dp584
g6
V/chenry/public/modelsupport/templates/GramPositive.modeltemplate||/reactions/id/rxn05378_c
p585
sg8
g15
sg10
g11
ssS'rxn10265_c'
p586
(dp587
g6
V/chenry/public/modelsupport/templates/GramPositive.modeltemplate||/reactions/id/rxn10265_c
p588
sg8
g15
sg10
g11
ssS'rxn05405_c'
p589
(dp590
g6
V/chenry/public/modelsupport/templates/GramPositive.modeltemplate||/reactions/id/rxn05405_c
p591
sg8
g15
sg10
g11
ssS'rxn05361_c'
p592
(dp593
g6
V/chenry/public/modelsupport/templates/GramPositive.modeltemplate||/reactions/id/rxn05361_c
p594
sg8
g15
sg10
g11
ssS'rxn12008_c'
p595
(dp596
g6
V/chenry/public/modelsupport/templates/GramPositive.modeltemplate||/reactions/id/rxn12008_c
p597
sg8
g9
sg10
g11
ssS'rxn05401_c'
p598
(dp599
g6
V/chenry/public/modelsupport/templates/GramPositive.modeltemplate||/reactions/id/rxn05401_c
p600
sg8
g15
sg10
g11
ssS'rxn05255_c'
p601
(dp602
g6
V/chenry/public/modelsupport/templates/GramPositive.modeltemplate||/reactions/id/rxn05255_c
p603
sg8
g15
sg10
g11
ssS'rxn05407_c'
p604
(dp605
g6
V/chenry/public/modelsupport/templates/GramPositive.modeltemplate||/reactions/id/rxn05407_c
p606
sg8
g15
sg10
g11
ssS'rxn03397_c'
p607
(dp608
g6
V/chenry/public/modelsupport/templates/GramPositive.modeltemplate||/reactions/id/rxn03397_c
p609
sg8
g15
sg10
g11
ssS'rxn12664_c'
p610
(dp611
g6
V/chenry/public/modelsupport/templates/GramPositive.modeltemplate||/reactions/id/rxn12664_c
p612
sg8
g15
sg10
g11
ssS'rxn10311_c'
p613
(dp614
g6
V/chenry/public/modelsupport/templates/GramPositive.modeltemplate||/reactions/id/rxn10311_c
p615
sg8
g15
sg10
g11
ssS'rxn05369_c'
p616
(dp617
g6
V/chenry/public/modelsupport/templates/GramPositive.modeltemplate||/reactions/id/rxn05369_c
p618
sg8
g15
sg10
g11
ssS'rxn10193_c'
p619
(dp620
g6
V/chenry/public/modelsupport/templates/GramPositive.modeltemplate||/reactions/id/rxn10193_c
p621
sg8
g15
sg10
g11
ssS'rxn04147_c'
p622
(dp623
g6
V/chenry/public/modelsupport/templates/GramPositive.modeltemplate||/reactions/id/rxn04147_c
p624
sg8
g9
sg10
g11
ssS'rxn03150_c'
p625
(dp626
g6
V/chenry/public/modelsupport/templates/GramPositive.modeltemplate||/reactions/id/rxn03150_c
p627
sg8
g15
sg10
g11
ssS'rxn10336_c'
p628
(dp629
g6
V/chenry/public/modelsupport/templates/GramPositive.modeltemplate||/reactions/id/rxn10336_c
p630
sg8
g15
sg10
g11
ssS'rxn10195_c'
p631
(dp632
g6
V/chenry/public/modelsupport/templates/GramPositive.modeltemplate||/reactions/id/rxn10195_c
p633
sg8
g15
sg10
g11
ssS'rxn09135_c'
p634
(dp635
g6
V/chenry/public/modelsupport/templates/GramPositive.modeltemplate||/reactions/id/rxn09135_c
p636
sg8
g9
sg10
g11
ssS'rxn05386_c'
p637
(dp638
g6
V/chenry/public/modelsupport/templates/GramPositive.modeltemplate||/reactions/id/rxn05386_c
p639
sg8
g15
sg10
g11
ssS'rxn10197_c'
p640
(dp641
g6
V/chenry/public/modelsupport/templates/GramPositive.modeltemplate||/reactions/id/rxn10197_c
p642
sg8
g15
sg10
g11
ssS'rxn05442_c'
p643
(dp644
g6
V/chenry/public/modelsupport/templates/GramPositive.modeltemplate||/reactions/id/rxn05442_c
p645
sg8
g15
sg10
g11
ssS'rxn10196_c'
p646
(dp647
g6
V/chenry/public/modelsupport/templates/GramPositive.modeltemplate||/reactions/id/rxn10196_c
p648
sg8
g15
sg10
g11
ssS'rxn05402_c'
p649
(dp650
g6
V/chenry/public/modelsupport/templates/GramPositive.modeltemplate||/reactions/id/rxn05402_c
p651
sg8
g15
sg10
g11
ssS'rxn05029_c'
p652
(dp653
g6
V/chenry/public/modelsupport/templates/GramPositive.modeltemplate||/reactions/id/rxn05029_c
p654
sg8
g15
sg10
g11
ssS'rxn05144_c'
p655
(dp656
g6
V/chenry/public/modelsupport/templates/GramPositive.modeltemplate||/reactions/id/rxn05144_c
p657
sg8
g15
sg10
g11
ssS'rxn05315_c'
p658
(dp659
g6
V/chenry/public/modelsupport/templates/GramPositive.modeltemplate||/reactions/id/rxn05315_c
p660
sg8
g9
sg10
g11
ssS'rxn10832_c'
p661
(dp662
g6
V/chenry/public/modelsupport/templates/GramPositive.modeltemplate||/reactions/id/rxn10832_c
p663
sg8
g15
sg10
g11
ssS'rxn12860_c'
p664
(dp665
g6
V/chenry/public/modelsupport/templates/GramPositive.modeltemplate||/reactions/id/rxn12860_c
p666
sg8
g15
sg10
g11
ssS'rxn05651_c'
p667
(dp668
g6
V/chenry/public/modelsupport/templates/GramPositive.modeltemplate||/reactions/id/rxn05651_c
p669
sg8
g15
sg10
g11
ssS'rxn01213_c'
p670
(dp671
g6
V/chenry/public/modelsupport/templates/GramPositive.modeltemplate||/reactions/id/rxn01213_c
p672
sg8
g9
sg10
g11
ssS'rxn02011_c'
p673
(dp674
g6
V/chenry/public/modelsupport/templates/GramPositive.modeltemplate||/reactions/id/rxn02011_c
p675
sg8
g15
sg10
g11
ssS'rxn00137_c'
p676
(dp677
g6
V/chenry/public/modelsupport/templates/GramPositive.modeltemplate||/reactions/id/rxn00137_c
p678
sg8
g15
sg10
g11
ssS'rxn05391_c'
p679
(dp680
g6
V/chenry/public/modelsupport/templates/GramPositive.modeltemplate||/reactions/id/rxn05391_c
p681
sg8
g15
sg10
g11
ssS'rxn01207_c'
p682
(dp683
g6
V/chenry/public/modelsupport/templates/GramPositive.modeltemplate||/reactions/id/rxn01207_c
p684
sg8
g15
sg10
g11
ssS'rxn03852_c'
p685
(dp686
g6
V/chenry/public/modelsupport/templates/GramPositive.modeltemplate||/reactions/id/rxn03852_c
p687
sg8
g15
sg10
g11
ssS'rxn05397_c'
p688
(dp689
g6
V/chenry/public/modelsupport/templates/GramPositive.modeltemplate||/reactions/id/rxn05397_c
p690
sg8
g15
sg10
g11
ssS'rxn10205_c'
p691
(dp692
g6
V/chenry/public/modelsupport/templates/GramPositive.modeltemplate||/reactions/id/rxn10205_c
p693
sg8
g15
sg10
g11
ssS'rxn05393_c'
p694
(dp695
g6
V/chenry/public/modelsupport/templates/GramPositive.modeltemplate||/reactions/id/rxn05393_c
p696
sg8
g15
sg10
g11
ssS'rxn05389_c'
p697
(dp698
g6
V/chenry/public/modelsupport/templates/GramPositive.modeltemplate||/reactions/id/rxn05389_c
p699
sg8
g15
sg10
g11
ssS'rxn05175_c'
p700
(dp701
g6
V/chenry/public/modelsupport/templates/GramPositive.modeltemplate||/reactions/id/rxn05175_c
p702
sg8
g15
sg10
g11
ssS'rxn05385_c'
p703
(dp704
g6
V/chenry/public/modelsupport/templates/GramPositive.modeltemplate||/reactions/id/rxn05385_c
p705
sg8
g15
sg10
g11
ssS'rxn10226_c'
p706
(dp707
g6
V/chenry/public/modelsupport/templates/GramPositive.modeltemplate||/reactions/id/rxn10226_c
p708
sg8
g15
sg10
g11
ssS'rxn10233_c'
p709
(dp710
g6
V/chenry/public/modelsupport/templates/GramPositive.modeltemplate||/reactions/id/rxn10233_c
p711
sg8
g15
sg10
g11
ssS'rxn08040_c'
p712
(dp713
g6
V/chenry/public/modelsupport/templates/GramPositive.modeltemplate||/reactions/id/rxn08040_c
p714
sg8
g15
sg10
g11
ssS'rxn05441_c'
p715
(dp716
g6
V/chenry/public/modelsupport/templates/GramPositive.modeltemplate||/reactions/id/rxn05441_c
p717
sg8
g15
sg10
g11
ssS'rxn12224_c'
p718
(dp719
g6
V/chenry/public/modelsupport/templates/GramPositive.modeltemplate||/reactions/id/rxn12224_c
p720
sg8
g15
sg10
g11
ssS'rxn03893_c'
p721
(dp722
g6
V/chenry/public/modelsupport/templates/GramPositive.modeltemplate||/reactions/id/rxn03893_c
p723
sg8
g15
sg10
g11
ssS'rxn10214_c'
p724
(dp725
g6
V/chenry/public/modelsupport/templates/GramPositive.modeltemplate||/reactions/id/rxn10214_c
p726
sg8
g15
sg10
g11
ssS'rxn05368_c'
p727
(dp728
g6
V/chenry/public/modelsupport/templates/GramPositive.modeltemplate||/reactions/id/rxn05368_c
p729
sg8
g15
sg10
g11
ssS'rxn02063_c'
p730
(dp731
g6
V/chenry/public/modelsupport/templates/GramPositive.modeltemplate||/reactions/id/rxn02063_c
p732
sg8
g9
sg10
g11
ssS'rxn05267_c'
p733
(dp734
g6
V/chenry/public/modelsupport/templates/GramPositive.modeltemplate||/reactions/id/rxn05267_c
p735
sg8
g9
sg10
g11
ssS'rxn05443_c'
p736
(dp737
g6
V/chenry/public/modelsupport/templates/GramPositive.modeltemplate||/reactions/id/rxn05443_c
p738
sg8
g15
sg10
g11
ssS'rxn10310_c'
p739
(dp740
g6
V/chenry/public/modelsupport/templates/GramPositive.modeltemplate||/reactions/id/rxn10310_c
p741
sg8
g15
sg10
g11
ssS'rxn10291_c'
p742
(dp743
g6
V/chenry/public/modelsupport/templates/GramPositive.modeltemplate||/reactions/id/rxn10291_c
p744
sg8
g15
sg10
g11
ssS'rxn10145_c'
p745
(dp746
g6
V/chenry/public/modelsupport/templates/GramPositive.modeltemplate||/reactions/id/rxn10145_c
p747
sg8
g15
sg10
g11
ssS'rxn05390_c'
p748
(dp749
g6
V/chenry/public/modelsupport/templates/GramPositive.modeltemplate||/reactions/id/rxn05390_c
p750
sg8
g15
sg10
g11
ssS'rxn04139_c'
p751
(dp752
g6
V/chenry/public/modelsupport/templates/GramPositive.modeltemplate||/reactions/id/rxn04139_c
p753
sg8
g15
sg10
g11
ssS'rxn05387_c'
p754
(dp755
g6
V/chenry/public/modelsupport/templates/GramPositive.modeltemplate||/reactions/id/rxn05387_c
p756
sg8
g15
sg10
g11
ssS'rxn10300_c'
p757
(dp758
g6
V/chenry/public/modelsupport/templates/GramPositive.modeltemplate||/reactions/id/rxn10300_c
p759
sg8
g15
sg10
g11
ssS'rxn10302_c'
p760
(dp761
g6
V/chenry/public/modelsupport/templates/GramPositive.modeltemplate||/reactions/id/rxn10302_c
p762
sg8
g15
sg10
g11
ssS'rxn05148_c'
p763
(dp764
g6
V/chenry/public/modelsupport/templates/GramPositive.modeltemplate||/reactions/id/rxn05148_c
p765
sg8
g15
sg10
g11
ssS'rxn02774_c'
p766
(dp767
g6
V/chenry/public/modelsupport/templates/GramPositive.modeltemplate||/reactions/id/rxn02774_c
p768
sg8
g15
sg10
g11
ssS'rxn10206_c'
p769
(dp770
g6
V/chenry/public/modelsupport/templates/GramPositive.modeltemplate||/reactions/id/rxn10206_c
p771
sg8
g15
sg10
g11
ssS'rxn03164_c'
p772
(dp773
g6
V/chenry/public/modelsupport/templates/GramPositive.modeltemplate||/reactions/id/rxn03164_c
p774
sg8
g15
sg10
g11
ssS'rxn00963_c'
p775
(dp776
g6
V/chenry/public/modelsupport/templates/GramPositive.modeltemplate||/reactions/id/rxn00963_c
p777
sg8
g9
sg10
g11
ssS'rxn05244_c'
p778
(dp779
g6
V/chenry/public/modelsupport/templates/GramPositive.modeltemplate||/reactions/id/rxn05244_c
p780
sg8
g15
sg10
g11
ssS'rxn08976_c'
p781
(dp782
g6
V/chenry/public/modelsupport/templates/GramPositive.modeltemplate||/reactions/id/rxn08976_c
p783
sg8
g9
sg10
g11
ssS'rxn05394_c'
p784
(dp785
g6
V/chenry/public/modelsupport/templates/GramPositive.modeltemplate||/reactions/id/rxn05394_c
p786
sg8
g15
sg10
g11
ssS'rxn05514_c'
p787
(dp788
g6
V/chenry/public/modelsupport/templates/GramPositive.modeltemplate||/reactions/id/rxn05514_c
p789
sg8
g9
sg10
g11
ssS'rxn10227_c'
p790
(dp791
g6
V/chenry/public/modelsupport/templates/GramPositive.modeltemplate||/reactions/id/rxn10227_c
p792
sg8
g15
sg10
g11
ssS'rxn02288_c'
p793
(dp794
g6
V/chenry/public/modelsupport/templates/GramPositive.modeltemplate||/reactions/id/rxn02288_c
p795
sg8
g9
sg10
g11
ssS'rxn01466_c'
p796
(dp797
g6
V/chenry/public/modelsupport/templates/GramPositive.modeltemplate||/reactions/id/rxn01466_c
p798
sg8
g9
sg10
g11
ssS'rxn09674_c'
p799
(dp800
g6
V/chenry/public/modelsupport/templates/GramPositive.modeltemplate||/reactions/id/rxn09674_c
p801
sg8
g15
sg10
g11
sssg400
V2018-06-11T16:26:55Z
p802
sg402
V/chenry/public/modelsupport/patric-media/Complete
p803
sg404
I1
sg405
I0
sg406
V/tjmoutinho@patricbrc.org/home/models/.272563.8/gapfilling/gf.1
p804
sg408
Vgf.1
p805
sa(dp806
g2
(dp807
S'rxn09142_c'
p808
(dp809
g6
V/chenry/public/modelsupport/templates/GramPositive.modeltemplate||/reactions/id/rxn09142_c
p810
sg8
g9
sg10
g11
ssS'rxn10293_c'
p811
(dp812
g6
V/chenry/public/modelsupport/templates/GramPositive.modeltemplate||/reactions/id/rxn10293_c
p813
sg8
g15
sg10
g11
ssS'rxn00851_c'
p814
(dp815
g6
V/chenry/public/modelsupport/templates/GramPositive.modeltemplate||/reactions/id/rxn00851_c
p816
sg8
g15
sg10
g11
ssS'rxn05376_c'
p817
(dp818
g6
V/chenry/public/modelsupport/templates/GramPositive.modeltemplate||/reactions/id/rxn05376_c
p819
sg8
g15
sg10
g11
ssS'rxn08333_c'
p820
(dp821
g6
V/chenry/public/modelsupport/templates/GramPositive.modeltemplate||/reactions/id/rxn08333_c
p822
sg8
g15
sg10
g11
ssS'rxn00620_c'
p823
(dp824
g6
V/chenry/public/modelsupport/templates/GramPositive.modeltemplate||/reactions/id/rxn00620_c
p825
sg8
g9
sg10
g11
ssS'rxn00806_c'
p826
(dp827
g6
V/chenry/public/modelsupport/templates/GramPositive.modeltemplate||/reactions/id/rxn00806_c
p828
sg8
g15
sg10
g11
ssS'rxn02269_c'
p829
(dp830
g6
V/chenry/public/modelsupport/templates/GramPositive.modeltemplate||/reactions/id/rxn02269_c
p831
sg8
g15
sg10
g11
ssS'rxn13661_c'
p832
(dp833
g6
V/chenry/public/modelsupport/templates/GramPositive.modeltemplate||/reactions/id/rxn13661_c
p834
sg8
g9
sg10
g11
ssS'rxn05365_c'
p835
(dp836
g6
V/chenry/public/modelsupport/templates/GramPositive.modeltemplate||/reactions/id/rxn05365_c
p837
sg8
g15
sg10
g11
ssS'rxn12225_c'
p838
(dp839
g6
V/chenry/public/modelsupport/templates/GramPositive.modeltemplate||/reactions/id/rxn12225_c
p840
sg8
g15
sg10
g11
ssS'rxn05380_c'
p841
(dp842
g6
V/chenry/public/modelsupport/templates/GramPositive.modeltemplate||/reactions/id/rxn05380_c
p843
sg8
g15
sg10
g11
ssS'rxn05374_c'
p844
(dp845
g6
V/chenry/public/modelsupport/templates/GramPositive.modeltemplate||/reactions/id/rxn05374_c
p846
sg8
g15
sg10
g11
ssS'rxn09149_c'
p847
(dp848
g6
V/chenry/public/modelsupport/templates/GramPositive.modeltemplate||/reactions/id/rxn09149_c
p849
sg8
g9
sg10
g11
ssS'rxn02286_c'
p850
(dp851
g6
V/chenry/public/modelsupport/templates/GramPositive.modeltemplate||/reactions/id/rxn02286_c
p852
sg8
g15
sg10
g11
ssS'rxn10301_c'
p853
(dp854
g6
V/chenry/public/modelsupport/templates/GramPositive.modeltemplate||/reactions/id/rxn10301_c
p855
sg8
g15
sg10
g11
ssS'rxn10161_c'
p856
(dp857
g6
V/chenry/public/modelsupport/templates/GramPositive.modeltemplate||/reactions/id/rxn10161_c
p858
sg8
g15
sg10
g11
ssS'rxn10233_c'
p859
(dp860
g6
V/chenry/public/modelsupport/templates/GramPositive.modeltemplate||/reactions/id/rxn10233_c
p861
sg8
g15
sg10
g11
ssS'rxn08764_c'
p862
(dp863
g6
V/chenry/public/modelsupport/templates/GramPositive.modeltemplate||/reactions/id/rxn08764_c
p864
sg8
g15
sg10
g11
ssS'rxn05370_c'
p865
(dp866
g6
V/chenry/public/modelsupport/templates/GramPositive.modeltemplate||/reactions/id/rxn05370_c
p867
sg8
g15
sg10
g11
ssS'rxn04147_c'
p868
(dp869
g6
V/chenry/public/modelsupport/templates/GramPositive.modeltemplate||/reactions/id/rxn04147_c
p870
sg8
g9
sg10
g11
ssS'rxn09177_c'
p871
(dp872
g6
V/chenry/public/modelsupport/templates/GramPositive.modeltemplate||/reactions/id/rxn09177_c
p873
sg8
g9
sg10
g11
ssS'rxn05382_c'
p874
(dp875
g6
V/chenry/public/modelsupport/templates/GramPositive.modeltemplate||/reactions/id/rxn05382_c
p876
sg8
g15
sg10
g11
ssS'rxn10094_c'
p877
(dp878
g6
V/chenry/public/modelsupport/templates/GramPositive.modeltemplate||/reactions/id/rxn10094_c
p879
sg8
g15
sg10
g11
ssS'rxn01073_c'
p880
(dp881
g6
V/chenry/public/modelsupport/templates/GramPositive.modeltemplate||/reactions/id/rxn01073_c
p882
sg8
g9
sg10
g11
ssS'rxn05360_c'
p883
(dp884
g6
V/chenry/public/modelsupport/templates/GramPositive.modeltemplate||/reactions/id/rxn05360_c
p885
sg8
g15
sg10
g11
ssS'rxn05406_c'
p886
(dp887
g6
V/chenry/public/modelsupport/templates/GramPositive.modeltemplate||/reactions/id/rxn05406_c
p888
sg8
g15
sg10
g11
ssS'rxn01520_c'
p889
(dp890
g6
V/chenry/public/modelsupport/templates/GramPositive.modeltemplate||/reactions/id/rxn01520_c
p891
sg8
g15
sg10
g11
ssS'rxn05362_c'
p892
(dp893
g6
V/chenry/public/modelsupport/templates/GramPositive.modeltemplate||/reactions/id/rxn05362_c
p894
sg8
g15
sg10
g11
ssS'rxn05372_c'
p895
(dp896
g6
V/chenry/public/modelsupport/templates/GramPositive.modeltemplate||/reactions/id/rxn05372_c
p897
sg8
g15
sg10
g11
ssS'rxn00224_c'
p898
(dp899
g6
V/chenry/public/modelsupport/templates/GramPositive.modeltemplate||/reactions/id/rxn00224_c
p900
sg8
g9
sg10
g11
ssS'rxn03395_c'
p901
(dp902
g6
V/chenry/public/modelsupport/templates/GramPositive.modeltemplate||/reactions/id/rxn03395_c
p903
sg8
g15
sg10
g11
ssS'rxn10192_c'
p904
(dp905
g6
V/chenry/public/modelsupport/templates/GramPositive.modeltemplate||/reactions/id/rxn10192_c
p906
sg8
g15
sg10
g11
ssS'rxn00926_c'
p907
(dp908
g6
V/chenry/public/modelsupport/templates/GramPositive.modeltemplate||/reactions/id/rxn00926_c
p909
sg8
g9
sg10
g11
ssS'rxn05364_c'
p910
(dp911
g6
V/chenry/public/modelsupport/templates/GramPositive.modeltemplate||/reactions/id/rxn05364_c
p912
sg8
g15
sg10
g11
ssS'rxn10309_c'
p913
(dp914
g6
V/chenry/public/modelsupport/templates/GramPositive.modeltemplate||/reactions/id/rxn10309_c
p915
sg8
g15
sg10
g11
ssS'rxn05366_c'
p916
(dp917
g6
V/chenry/public/modelsupport/templates/GramPositive.modeltemplate||/reactions/id/rxn05366_c
p918
sg8
g15
sg10
g11
ssS'rxn00830_c'
p919
(dp920
g6
V/chenry/public/modelsupport/templates/GramPositive.modeltemplate||/reactions/id/rxn00830_c
p921
sg8
g9
sg10
g11
ssS'rxn03393_c'
p922
(dp923
g6
V/chenry/public/modelsupport/templates/GramPositive.modeltemplate||/reactions/id/rxn03393_c
p924
sg8
g15
sg10
g11
ssS'rxn10194_c'
p925
(dp926
g6
V/chenry/public/modelsupport/templates/GramPositive.modeltemplate||/reactions/id/rxn10194_c
p927
sg8
g15
sg10
g11
ssS'rxn08669_c'
p928
(dp929
g6
V/chenry/public/modelsupport/templates/GramPositive.modeltemplate||/reactions/id/rxn08669_c
p930
sg8
g9
sg10
g11
ssS'rxn10337_c'
p931
(dp932
g6
V/chenry/public/modelsupport/templates/GramPositive.modeltemplate||/reactions/id/rxn10337_c
p933
sg8
g15
sg10
g11
ssS'rxn05377_c'
p934
(dp935
g6
V/chenry/public/modelsupport/templates/GramPositive.modeltemplate||/reactions/id/rxn05377_c
p936
sg8
g15
sg10
g11
ssS'rxn05381_c'
p937
(dp938
g6
V/chenry/public/modelsupport/templates/GramPositive.modeltemplate||/reactions/id/rxn05381_c
p939
sg8
g15
sg10
g11
ssS'rxn05398_c'
p940
(dp941
g6
V/chenry/public/modelsupport/templates/GramPositive.modeltemplate||/reactions/id/rxn05398_c
p942
sg8
g15
sg10
g11
ssS'rxn05618_c'
p943
(dp944
g6
V/chenry/public/modelsupport/templates/GramPositive.modeltemplate||/reactions/id/rxn05618_c
p945
sg8
g15
sg10
g11
ssS'rxn10215_c'
p946
(dp947
g6
V/chenry/public/modelsupport/templates/GramPositive.modeltemplate||/reactions/id/rxn10215_c
p948
sg8
g15
sg10
g11
ssS'rxn10292_c'
p949
(dp950
g6
V/chenry/public/modelsupport/templates/GramPositive.modeltemplate||/reactions/id/rxn10292_c
p951
sg8
g15
sg10
g11
ssS'rxn02056_c'
p952
(dp953
g6
V/chenry/public/modelsupport/templates/GramPositive.modeltemplate||/reactions/id/rxn02056_c
p954
sg8
g9
sg10
g11
ssS'rxn02304_c'
p955
(dp956
g6
V/chenry/public/modelsupport/templates/GramPositive.modeltemplate||/reactions/id/rxn02304_c
p957
sg8
g9
sg10
g11
ssS'rxn11946_c'
p958
(dp959
g6
V/chenry/public/modelsupport/templates/GramPositive.modeltemplate||/reactions/id/rxn11946_c
p960
sg8
g15
sg10
g11
ssS'rxn05373_c'
p961
(dp962
g6
V/chenry/public/modelsupport/templates/GramPositive.modeltemplate||/reactions/id/rxn05373_c
p963
sg8
g15
sg10
g11
ssS'rxn10232_c'
p964
(dp965
g6
V/chenry/public/modelsupport/templates/GramPositive.modeltemplate||/reactions/id/rxn10232_c
p966
sg8
g15
sg10
g11
ssS'rxn05403_c'
p967
(dp968
g6
V/chenry/public/modelsupport/templates/GramPositive.modeltemplate||/reactions/id/rxn05403_c
p969
sg8
g15
sg10
g11
ssS'rxn00605_c'
p970
(dp971
g6
V/chenry/public/modelsupport/templates/GramPositive.modeltemplate||/reactions/id/rxn00605_c
p972
sg8
g9
sg10
g11
ssS'rxn02290_c'
p973
(dp974
g6
V/chenry/public/modelsupport/templates/GramPositive.modeltemplate||/reactions/id/rxn02290_c
p975
sg8
g9
sg10
g11
ssS'rxn05378_c'
p976
(dp977
g6
V/chenry/public/modelsupport/templates/GramPositive.modeltemplate||/reactions/id/rxn05378_c
p978
sg8
g15
sg10
g11
ssS'rxn10265_c'
p979
(dp980
g6
V/chenry/public/modelsupport/templates/GramPositive.modeltemplate||/reactions/id/rxn10265_c
p981
sg8
g15
sg10
g11
ssS'rxn05405_c'
p982
(dp983
g6
V/chenry/public/modelsupport/templates/GramPositive.modeltemplate||/reactions/id/rxn05405_c
p984
sg8
g15
sg10
g11
ssS'rxn05361_c'
p985
(dp986
g6
V/chenry/public/modelsupport/templates/GramPositive.modeltemplate||/reactions/id/rxn05361_c
p987
sg8
g15
sg10
g11
ssS'rxn12008_c'
p988
(dp989
g6
V/chenry/public/modelsupport/templates/GramPositive.modeltemplate||/reactions/id/rxn12008_c
p990
sg8
g9
sg10
g11
ssS'rxn05401_c'
p991
(dp992
g6
V/chenry/public/modelsupport/templates/GramPositive.modeltemplate||/reactions/id/rxn05401_c
p993
sg8
g15
sg10
g11
ssS'rxn05255_c'
p994
(dp995
g6
V/chenry/public/modelsupport/templates/GramPositive.modeltemplate||/reactions/id/rxn05255_c
p996
sg8
g15
sg10
g11
ssS'rxn03150_c'
p997
(dp998
g6
V/chenry/public/modelsupport/templates/GramPositive.modeltemplate||/reactions/id/rxn03150_c
p999
sg8
g15
sg10
g11
ssS'rxn05407_c'
p1000
(dp1001
g6
V/chenry/public/modelsupport/templates/GramPositive.modeltemplate||/reactions/id/rxn05407_c
p1002
sg8
g15
sg10
g11
ssS'rxn03397_c'
p1003
(dp1004
g6
V/chenry/public/modelsupport/templates/GramPositive.modeltemplate||/reactions/id/rxn03397_c
p1005
sg8
g15
sg10
g11
ssS'rxn12664_c'
p1006
(dp1007
g6
V/chenry/public/modelsupport/templates/GramPositive.modeltemplate||/reactions/id/rxn12664_c
p1008
sg8
g15
sg10
g11
ssS'rxn10311_c'
p1009
(dp1010
g6
V/chenry/public/modelsupport/templates/GramPositive.modeltemplate||/reactions/id/rxn10311_c
p1011
sg8
g15
sg10
g11
ssS'rxn05369_c'
p1012
(dp1013
g6
V/chenry/public/modelsupport/templates/GramPositive.modeltemplate||/reactions/id/rxn05369_c
p1014
sg8
g15
sg10
g11
ssS'rxn10193_c'
p1015
(dp1016
g6
V/chenry/public/modelsupport/templates/GramPositive.modeltemplate||/reactions/id/rxn10193_c
p1017
sg8
g15
sg10
g11
ssS'rxn05399_c'
p1018
(dp1019
g6
V/chenry/public/modelsupport/templates/GramPositive.modeltemplate||/reactions/id/rxn05399_c
p1020
sg8
g15
sg10
g11
ssS'rxn10338_c'
p1021
(dp1022
g6
V/chenry/public/modelsupport/templates/GramPositive.modeltemplate||/reactions/id/rxn10338_c
p1023
sg8
g15
sg10
g11
ssS'rxn10336_c'
p1024
(dp1025
g6
V/chenry/public/modelsupport/templates/GramPositive.modeltemplate||/reactions/id/rxn10336_c
p1026
sg8
g15
sg10
g11
ssS'rxn10195_c'
p1027
(dp1028
g6
V/chenry/public/modelsupport/templates/GramPositive.modeltemplate||/reactions/id/rxn10195_c
p1029
sg8
g15
sg10
g11
ssS'rxn05168_c'
p1030
(dp1031
g6
V/chenry/public/modelsupport/templates/GramPositive.modeltemplate||/reactions/id/rxn05168_c
p1032
sg8
g15
sg10
g11
ssS'rxn09135_c'
p1033
(dp1034
g6
V/chenry/public/modelsupport/templates/GramPositive.modeltemplate||/reactions/id/rxn09135_c
p1035
sg8
g9
sg10
g11
ssS'rxn05386_c'
p1036
(dp1037
g6
V/chenry/public/modelsupport/templates/GramPositive.modeltemplate||/reactions/id/rxn05386_c
p1038
sg8
g15
sg10
g11
ssS'rxn10197_c'
p1039
(dp1040
g6
V/chenry/public/modelsupport/templates/GramPositive.modeltemplate||/reactions/id/rxn10197_c
p1041
sg8
g15
sg10
g11
ssS'rxn12860_c'
p1042
(dp1043
g6
V/chenry/public/modelsupport/templates/GramPositive.modeltemplate||/reactions/id/rxn12860_c
p1044
sg8
g15
sg10
g11
ssS'rxn05402_c'
p1045
(dp1046
g6
V/chenry/public/modelsupport/templates/GramPositive.modeltemplate||/reactions/id/rxn05402_c
p1047
sg8
g15
sg10
g11
ssS'rxn05029_c'
p1048
(dp1049
g6
V/chenry/public/modelsupport/templates/GramPositive.modeltemplate||/reactions/id/rxn05029_c
p1050
sg8
g15
sg10
g11
ssS'rxn05144_c'
p1051
(dp1052
g6
V/chenry/public/modelsupport/templates/GramPositive.modeltemplate||/reactions/id/rxn05144_c
p1053
sg8
g15
sg10
g11
ssS'rxn10832_c'
p1054
(dp1055
g6
V/chenry/public/modelsupport/templates/GramPositive.modeltemplate||/reactions/id/rxn10832_c
p1056
sg8
g15
sg10
g11
ssS'rxn05397_c'
p1057
(dp1058
g6
V/chenry/public/modelsupport/templates/GramPositive.modeltemplate||/reactions/id/rxn05397_c
p1059
sg8
g15
sg10
g11
ssS'rxn05394_c'
p1060
(dp1061
g6
V/chenry/public/modelsupport/templates/GramPositive.modeltemplate||/reactions/id/rxn05394_c
p1062
sg8
g15
sg10
g11
ssS'rxn01213_c'
p1063
(dp1064
g6
V/chenry/public/modelsupport/templates/GramPositive.modeltemplate||/reactions/id/rxn01213_c
p1065
sg8
g9
sg10
g11
ssS'rxn02011_c'
p1066
(dp1067
g6
V/chenry/public/modelsupport/templates/GramPositive.modeltemplate||/reactions/id/rxn02011_c
p1068
sg8
g15
sg10
g11
ssS'rxn00137_c'
p1069
(dp1070
g6
V/chenry/public/modelsupport/templates/GramPositive.modeltemplate||/reactions/id/rxn00137_c
p1071
sg8
g15
sg10
g11
ssS'rxn05391_c'
p1072
(dp1073
g6
V/chenry/public/modelsupport/templates/GramPositive.modeltemplate||/reactions/id/rxn05391_c
p1074
sg8
g15
sg10
g11
ssS'rxn10227_c'
p1075
(dp1076
g6
V/chenry/public/modelsupport/templates/GramPositive.modeltemplate||/reactions/id/rxn10227_c
p1077
sg8
g15
sg10
g11
ssS'rxn03852_c'
p1078
(dp1079
g6
V/chenry/public/modelsupport/templates/GramPositive.modeltemplate||/reactions/id/rxn03852_c
p1080
sg8
g15
sg10
g11
ssS'rxn05395_c'
p1081
(dp1082
g6
V/chenry/public/modelsupport/templates/GramPositive.modeltemplate||/reactions/id/rxn05395_c
p1083
sg8
g15
sg10
g11
ssS'rxn10205_c'
p1084
(dp1085
g6
V/chenry/public/modelsupport/templates/GramPositive.modeltemplate||/reactions/id/rxn10205_c
p1086
sg8
g15
sg10
g11
ssS'rxn05393_c'
p1087
(dp1088
g6
V/chenry/public/modelsupport/templates/GramPositive.modeltemplate||/reactions/id/rxn05393_c
p1089
sg8
g15
sg10
g11
ssS'rxn05389_c'
p1090
(dp1091
g6
V/chenry/public/modelsupport/templates/GramPositive.modeltemplate||/reactions/id/rxn05389_c
p1092
sg8
g15
sg10
g11
ssS'rxn05175_c'
p1093
(dp1094
g6
V/chenry/public/modelsupport/templates/GramPositive.modeltemplate||/reactions/id/rxn05175_c
p1095
sg8
g15
sg10
g11
ssS'rxn05385_c'
p1096
(dp1097
g6
V/chenry/public/modelsupport/templates/GramPositive.modeltemplate||/reactions/id/rxn05385_c
p1098
sg8
g15
sg10
g11
ssS'rxn08657_c'
p1099
(dp1100
g6
V/chenry/public/modelsupport/templates/GramPositive.modeltemplate||/reactions/id/rxn08657_c
p1101
sg8
g9
sg10
g11
ssS'rxn10226_c'
p1102
(dp1103
g6
V/chenry/public/modelsupport/templates/GramPositive.modeltemplate||/reactions/id/rxn10226_c
p1104
sg8
g15
sg10
g11
ssS'rxn10266_c'
p1105
(dp1106
g6
V/chenry/public/modelsupport/templates/GramPositive.modeltemplate||/reactions/id/rxn10266_c
p1107
sg8
g15
sg10
g11
ssS'rxn05179_c'
p1108
(dp1109
g6
V/chenry/public/modelsupport/templates/GramPositive.modeltemplate||/reactions/id/rxn05179_c
p1110
sg8
g15
sg10
g11
ssS'rxn08040_c'
p1111
(dp1112
g6
V/chenry/public/modelsupport/templates/GramPositive.modeltemplate||/reactions/id/rxn08040_c
p1113
sg8
g15
sg10
g11
ssS'rxn12224_c'
p1114
(dp1115
g6
V/chenry/public/modelsupport/templates/GramPositive.modeltemplate||/reactions/id/rxn12224_c
p1116
sg8
g15
sg10
g11
ssS'rxn10196_c'
p1117
(dp1118
g6
V/chenry/public/modelsupport/templates/GramPositive.modeltemplate||/reactions/id/rxn10196_c
p1119
sg8
g15
sg10
g11
ssS'rxn05368_c'
p1120
(dp1121
g6
V/chenry/public/modelsupport/templates/GramPositive.modeltemplate||/reactions/id/rxn05368_c
p1122
sg8
g15
sg10
g11
ssS'rxn02063_c'
p1123
(dp1124
g6
V/chenry/public/modelsupport/templates/GramPositive.modeltemplate||/reactions/id/rxn02063_c
p1125
sg8
g9
sg10
g11
ssS'rxn05267_c'
p1126
(dp1127
g6
V/chenry/public/modelsupport/templates/GramPositive.modeltemplate||/reactions/id/rxn05267_c
p1128
sg8
g9
sg10
g11
ssS'rxn10310_c'
p1129
(dp1130
g6
V/chenry/public/modelsupport/templates/GramPositive.modeltemplate||/reactions/id/rxn10310_c
p1131
sg8
g15
sg10
g11
ssS'rxn10291_c'
p1132
(dp1133
g6
V/chenry/public/modelsupport/templates/GramPositive.modeltemplate||/reactions/id/rxn10291_c
p1134
sg8
g15
sg10
g11
ssS'rxn10145_c'
p1135
(dp1136
g6
V/chenry/public/modelsupport/templates/GramPositive.modeltemplate||/reactions/id/rxn10145_c
p1137
sg8
g15
sg10
g11
ssS'rxn05390_c'
p1138
(dp1139
g6
V/chenry/public/modelsupport/templates/GramPositive.modeltemplate||/reactions/id/rxn05390_c
p1140
sg8
g15
sg10
g11
ssS'rxn04139_c'
p1141
(dp1142
g6
V/chenry/public/modelsupport/templates/GramPositive.modeltemplate||/reactions/id/rxn04139_c
p1143
sg8
g15
sg10
g11
ssS'rxn05387_c'
p1144
(dp1145
g6
V/chenry/public/modelsupport/templates/GramPositive.modeltemplate||/reactions/id/rxn05387_c
p1146
sg8
g15
sg10
g11
ssS'rxn10300_c'
p1147
(dp1148
g6
V/chenry/public/modelsupport/templates/GramPositive.modeltemplate||/reactions/id/rxn10300_c
p1149
sg8
g15
sg10
g11
ssS'rxn10302_c'
p1150
(dp1151
g6
V/chenry/public/modelsupport/templates/GramPositive.modeltemplate||/reactions/id/rxn10302_c
p1152
sg8
g15
sg10
g11
ssS'rxn00292_c'
p1153
(dp1154
g6
V/chenry/public/modelsupport/templates/GramPositive.modeltemplate||/reactions/id/rxn00292_c
p1155
sg8
g9
sg10
g11
ssS'rxn05148_c'
p1156
(dp1157
g6
V/chenry/public/modelsupport/templates/GramPositive.modeltemplate||/reactions/id/rxn05148_c
p1158
sg8
g15
sg10
g11
ssS'rxn02774_c'
p1159
(dp1160
g6
V/chenry/public/modelsupport/templates/GramPositive.modeltemplate||/reactions/id/rxn02774_c
p1161
sg8
g15
sg10
g11
ssS'rxn05151_c'
p1162
(dp1163
g6
V/chenry/public/modelsupport/templates/GramPositive.modeltemplate||/reactions/id/rxn05151_c
p1164
sg8
g15
sg10
g11
ssS'rxn10206_c'
p1165
(dp1166
g6
V/chenry/public/modelsupport/templates/GramPositive.modeltemplate||/reactions/id/rxn10206_c
p1167
sg8
g15
sg10
g11
ssS'rxn03164_c'
p1168
(dp1169
g6
V/chenry/public/modelsupport/templates/GramPositive.modeltemplate||/reactions/id/rxn03164_c
p1170
sg8
g15
sg10
g11
ssS'rxn00963_c'
p1171
(dp1172
g6
V/chenry/public/modelsupport/templates/GramPositive.modeltemplate||/reactions/id/rxn00963_c
p1173
sg8
g9
sg10
g11
ssS'rxn05315_c'
p1174
(dp1175
g6
V/chenry/public/modelsupport/templates/GramPositive.modeltemplate||/reactions/id/rxn05315_c
p1176
sg8
g9
sg10
g11
ssS'rxn05651_c'
p1177
(dp1178
g6
V/chenry/public/modelsupport/templates/GramPositive.modeltemplate||/reactions/id/rxn05651_c
p1179
sg8
g15
sg10
g11
ssS'rxn05514_c'
p1180
(dp1181
g6
V/chenry/public/modelsupport/templates/GramPositive.modeltemplate||/reactions/id/rxn05514_c
p1182
sg8
g9
sg10
g11
ssS'rxn01207_c'
p1183
(dp1184
g6
V/chenry/public/modelsupport/templates/GramPositive.modeltemplate||/reactions/id/rxn01207_c
p1185
sg8
g15
sg10
g11
ssS'rxn02288_c'
p1186
(dp1187
g6
V/chenry/public/modelsupport/templates/GramPositive.modeltemplate||/reactions/id/rxn02288_c
p1188
sg8
g9
sg10
g11
ssS'rxn01466_c'
p1189
(dp1190
g6
V/chenry/public/modelsupport/templates/GramPositive.modeltemplate||/reactions/id/rxn01466_c
p1191
sg8
g9
sg10
g11
ssS'rxn10214_c'
p1192
(dp1193
g6
V/chenry/public/modelsupport/templates/GramPositive.modeltemplate||/reactions/id/rxn10214_c
p1194
sg8
g15
sg10
g11
ssS'rxn03893_c'
p1195
(dp1196
g6
V/chenry/public/modelsupport/templates/GramPositive.modeltemplate||/reactions/id/rxn03893_c
p1197
sg8
g15
sg10
g11
sssg400
V2018-06-11T16:20:03Z
p1198
sg402
V/chenry/public/modelsupport/patric-media/Complete
p1199
sg404
I1
sg405
I0
sg406
V/tjmoutinho@patricbrc.org/home/models/.272563.8/gapfilling/gf.0
p1200
sg408
Vgf.0
p1201
sa.