(dp0
S'kynurenate'
p1
cnumpy.core.multiarray
scalar
p2
(cnumpy
dtype
p3
(S'f8'
p4
I0
I1
tp5
Rp6
(I3
S'<'
p7
NNNI-1
I-1
I0
tp8
bS'\xdb\x8a\xfde\xf7\xe4\xf9?'
p9
tp10
Rp11
sS'2-methylcitrate/homocitrate'
p12
g2
(g6
S'P\xfc\x18s\xd7\x12\xf2?'
p13
tp14
Rp15
sS'N1,N12-diacetylspermine'
p16
g2
(g6
S'\xbak\t\xf9\xa0g\xe5?'
p17
tp18
Rp19
sS"trigonelline_(N'-methylnicotinate)"
p20
g2
(g6
S'\xf0\x85\xc9T\xc1\xa8\xf2?'
p21
tp22
Rp23
sS'valine_betaine'
p24
g2
(g6
S'\xfe\xd4x\xe9&1\xf1?'
p25
tp26
Rp27
sS'aspartate'
p28
g2
(g6
S'\xe4\x14\x1d\xc9\xe5?\xe8?'
p29
tp30
Rp31
sS'1-stearoyl-GPA_(18:0)'
p32
g2
(g6
S'\xfc\x18s\xd7\x12\xf2\xe5?'
p33
tp34
Rp35
sS'5-oxoproline'
p36
g2
(g6
S'\x04V\x0e-\xb2\x9d\xe7?'
p37
tp38
Rp39
sS'N6-formyllysine'
p40
g2
(g6
S'?\xc6\xdc\xb5\x84|\xe0?'
p41
tp42
Rp43
sS'imidazole_lactate'
p44
g2
(g6
S'F%u\x02\x9a\xc8\x12@'
p45
tp46
Rp47
sS'soyasaponin_II_'
p48
g2
(g6
S'n4\x80\xb7@\x82\xf3?'
p49
tp50
Rp51
sS'nonadecanoate_(19:0)'
p52
g2
(g6
S'\xcc\x7fH\xbf}\x1d\xea?'
p53
tp54
Rp55
sS'4-hydroxyphenylpyruvate'
p56
g2
(g6
S'\xa4p=\n\xd7\xa3\xf2?'
p57
tp58
Rp59
sS'cis-4-decenoylcarnitine_(C10:1)'
p60
g2
(g6
S'\xa9\x13\xd0D\xd8\xf0\xb4?'
p61
tp62
Rp63
sS'eicosenoate_(20:1)'
p64
g2
(g6
S'\x0c\x93\xa9\x82QI\xe5?'
p65
tp66
Rp67
sS'soyasaponin_III'
p68
g2
(g6
S'9\xb4\xc8v\xbe\x9f\xee?'
p69
tp70
Rp71
sS'N-palmitoyl-sphingosine_(d18:1/16:0)'
p72
g2
(g6
S'\x9c\xc4 \xb0rh\xf3?'
p73
tp74
Rp75
sS'glycocholate_sulfate'
p76
g2
(g6
S'\xe2\xe9\x95\xb2\x0cq\xd4?'
p77
tp78
Rp79
sS'tyrosylglycine'
p80
g2
(g6
S'\xd5\th"lx\xd6?'
p81
tp82
Rp83
sS'deoxycholate'
p84
g2
(g6
S'\x05\xa3\x92:\x01M\xe8?'
p85
tp86
Rp87
sS'linoleoyl-arachidonoyl-glycerol_(18:2/20:4)_[2]*'
p88
g2
(g6
S'\xda\xac\xfa\\m\xc5\xe4?'
p89
tp90
Rp91
sS'cytidine'
p92
g2
(g6
S'\xc3d\xaa`TR\xe3?'
p93
tp94
Rp95
sS'carboxyethyl-GABA'
p96
g2
(g6
S'\x88\x85Z\xd3\xbc\xe3\xf0?'
p97
tp98
Rp99
sS'hyodeoxycholate'
p100
g2
(g6
S'\xe9H.\xff!\xfd\xc6?'
p101
tp102
Rp103
sS'3-hydroxyisobutyrate'
p104
g2
(g6
S'.\xff!\xfd\xf6u\xf4?'
p105
tp106
Rp107
sS'1,2-dilinoleoyl-GPE_(18:2/18:2)*'
p108
g2
(g6
S'\x9c3\xa2\xb47x\x01@'
p109
tp110
Rp111
sS'2-methylbutyrylcarnitine_(C5)'
p112
g2
(g6
S'\xa0\x89\xb0\xe1\xe9\x95\xee?'
p113
tp114
Rp115
sS'oleate/vaccenate_(18:1)'
p116
g2
(g6
S'\xd0\xd5V\xec/\xbb\xe1?'
p117
tp118
Rp119
sS'N1-Methyl-2-pyridone-5-carboxamide'
p120
g2
(g6
S'\xee|?5^\xba\xf3?'
p121
tp122
Rp123
sS'1-myristoylglycerol_(14:0)'
p124
g2
(g6
S'\x86Z\xd3\xbc\xe3\x14\xd9?'
p125
tp126
Rp127
sS'2-oleoylglycerol_(18:1)'
p128
g2
(g6
S'U\xc1\xa8\xa4N@\xdf?'
p129
tp130
Rp131
sS"2'-deoxycytidine"
p132
g2
(g6
S"\xaa`TR'\xa0\xc1?"
p133
tp134
Rp135
sS'4-acetamidobutanoate'
p136
g2
(g6
S'.\xff!\xfd\xf6u\xc0?'
p137
tp138
Rp139
sS'ferulylglycine_(2)'
p140
g2
(g6
S'\x00\x00\x00\x00\x00\x00\xe0?'
p141
tp142
Rp143
sS'carnosine'
p144
g2
(g6
S'\xa3\x01\xbc\x05\x12\x14\xf9?'
p145
tp146
Rp147
sS'isovalerylglycine'
p148
g2
(g6
S'\xc9v\xbe\x9f\x1a/\xf4?'
p149
tp150
Rp151
sS'N-acetylproline'
p152
g2
(g6
S'\xba\xda\x8a\xfde\xf7\xf8?'
p153
tp154
Rp155
sS'dopamine_3-O-sulfate'
p156
g2
(g6
S'7\x89A`\xe5\xd0\xd6?'
p157
tp158
Rp159
sS'N-stearoyltaurine'
p160
g2
(g6
S'>yX\xa85\xcd\xcb?'
p161
tp162
Rp163
sS'fumarate'
p164
g2
(g6
S'\\\x8f\xc2\xf5(\xdc\x00@'
p165
tp166
Rp167
sS'indole-3-carboxylic_acid'
p168
g2
(g6
S':\x92\xcb\x7fH\xbf\xf3?'
p169
tp170
Rp171
sS'N-acetylglucosaminylasparagine'
p172
g2
(g6
S'2w-!\x1f\xf4\xbc?'
p173
tp174
Rp175
sS'dimethylglycine'
p176
g2
(g6
S'7\x1a\xc0[ A\xdd?'
p177
tp178
Rp179
sS'arachidonoylcarnitine_(C20:4)'
p180
g2
(g6
S'\t\x1b\x9e^)\xcb\xee?'
p181
tp182
Rp183
sS'phenol_sulfate'
p184
g2
(g6
S'\xf2A\xcff\xd5\xe7\xca?'
p185
tp186
Rp187
sS'glycerophosphoserine*'
p188
g2
(g6
S'\x88\x85Z\xd3\xbc\xe3\x94?'
p189
tp190
Rp191
sS'4-cholesten-3-one'
p192
g2
(g6
S'b\x10X9\xb4\xc8\xf1?'
p193
tp194
Rp195
sS'alpha-tocopherol_acetate'
p196
g2
(g6
S'\x85\xebQ\xb8\x1e\x85\xf1?'
p197
tp198
Rp199
sS'2-keto-3-deoxy-gluconate'
p200
g2
(g6
S'9\xb4\xc8v\xbe\x9f\xf0?'
p201
tp202
Rp203
sS"cytidine_5'-monophosphate_(5'-CMP)"
p204
g2
(g6
S'\xb7\xd1\x00\xde\x02\t\xca?'
p205
tp206
Rp207
sS'behenate_(22:0)*'
p208
g2
(g6
S'y\xe9&1\x08\xac\xe8?'
p209
tp210
Rp211
sS'ergothioneine'
p212
g2
(g6
S'\x8c\xdbh\x00o\x81\xe8?'
p213
tp214
Rp215
sS'1-palmitoyl-2-oleoyl-GPC_(16:0/18:1)'
p216
g2
(g6
S'\x88\x85Z\xd3\xbc\xe3\xec?'
p217
tp218
Rp219
sS'3-hydroxybutyrylcarnitine_(2)'
p220
g2
(g6
S'6<\xbdR\x96!\xbe?'
p221
tp222
Rp223
sS'phenylalanylglycine'
p224
g2
(g6
S'?W[\xb1\xbf\xec\xe6?'
p225
tp226
Rp227
sS'stearoyl-linoleoyl-glycerol_(18:0/18:2)_[2]*'
p228
g2
(g6
S'\xad\xfa\\m\xc5\xfe\xf5?'
p229
tp230
Rp231
sS'1-oleoyl-GPC_(18:1)'
p232
g2
(g6
S"'\xa0\x89\xb0\xe1\xe9\xf1?"
p233
tp234
Rp235
sS'N-acetylisoleucine'
p236
g2
(g6
S'\xd1\x91\\\xfeC\xfa\xe7?'
p237
tp238
Rp239
sS'6-oxopiperidine-2-carboxylate'
p240
g2
(g6
S'\xd0D\xd8\xf0\xf4J\xe9?'
p241
tp242
Rp243
sS'3-sulfo-L-alanine'
p244
g2
(g6
S'\xac\xad\xd8_vO\xf5?'
p245
tp246
Rp247
sS'daidzein_sulfate_(2)'
p248
g2
(g6
S'>yX\xa85\xcd\xf3?'
p249
tp250
Rp251
sS'guanidinoacetate'
p252
g2
(g6
S'\x02+\x87\x16\xd9\xce\xeb?'
p253
tp254
Rp255
sS'1-palmitoleoylglycerol_(16:1)*'
p256
g2
(g6
S'\xebs\xb5\x15\xfb\xcb\xe4?'
p257
tp258
Rp259
sS'heme'
p260
g2
(g6
S'\x0b$(~\x8c\xb9\xf3?'
p261
tp262
Rp263
sS'valylglycine'
p264
g2
(g6
S'\xf0\x16HP\xfc\x18\xef?'
p265
tp266
Rp267
sS'taurochenodeoxycholate'
p268
g2
(g6
S'0L\xa6\nF\xa5\x00@'
p269
tp270
Rp271
sS'sebacate_(decanedioate)'
p272
g2
(g6
S'{\x83/L\xa6\n\xf6?'
p273
tp274
Rp275
sS'stachydrine'
p276
g2
(g6
S'Q\xda\x1b|a2\xf8?'
p277
tp278
Rp279
sS'N-acetylglucosamine/N-acetylgalactosamine'
p280
g2
(g6
S'\xcc]K\xc8\x07=\x9b?'
p281
tp282
Rp283
sS'1-stearoyl-GPC_(18:0)'
p284
g2
(g6
S'{\x14\xaeG\xe1z\xf5?'
p285
tp286
Rp287
sS'docosahexaenoate_(DHA;_22:6n3)'
p288
g2
(g6
S'n\xa3\x01\xbc\x05\x12\xd8?'
p289
tp290
Rp291
sS'2-palmitoleoylglycerol_(16:1)*'
p292
g2
(g6
S'\x99*\x18\x95\xd4\t\xe0?'
p293
tp294
Rp295
sS'thymidine'
p296
g2
(g6
S'(\x0f\x0b\xb5\xa6y\xe5?'
p297
tp298
Rp299
sS'propionylcarnitine_(C3)'
p300
g2
(g6
S'J{\x83/L\xa6\xba?'
p301
tp302
Rp303
sS'12,13-DiHOME'
p304
g2
(g6
S'\xe6\xae%\xe4\x83\x9e\xeb?'
p305
tp306
Rp307
sS'palmitoleate_(16:1n7)'
p308
g2
(g6
S'\xc3\xd3+e\x19\xe2\xec?'
p309
tp310
Rp311
sS'kynurenine'
p312
g2
(g6
S']\xdcF\x03x\x0b\xd8?'
p313
tp314
Rp315
sS'gamma-glutamylglutamine'
p316
g2
(g6
S'\xec\xc09#J{\xe7?'
p317
tp318
Rp319
sS'gluconate'
p320
g2
(g6
S'\x17\xb7\xd1\x00\xde\x02\xdd?'
p321
tp322
Rp323
sS'nervonate_(24:1n9)*'
p324
g2
(g6
S"'\xc2\x86\xa7W\xca\xea?"
p325
tp326
Rp327
sS'campesterol'
p328
g2
(g6
S'Nb\x10X9\xb4\xf0?'
p329
tp330
Rp331
sS'afromosin'
p332
g2
(g6
S'J\x0c\x02+\x87\x16\xf5?'
p333
tp334
Rp335
sS'equol_sulfate'
p336
g2
(g6
S'\x12\x14?\xc6\xdc\xb5\xe2?'
p337
tp338
Rp339
sS'N-acetyl-aspartyl-glutamate_(NAAG)'
p340
g2
(g6
S'=\n\xd7\xa3p=\xf1?'
p341
tp342
Rp343
sS'linoleoyl_ethanolamide'
p344
g2
(g6
S'\x12\x83\xc0\xca\xa1E\xe6?'
p345
tp346
Rp347
sS"5-methyl-2'-deoxycytidine"
p348
g2
(g6
S'{\x14\xaeG\xe1z\xe6?'
p349
tp350
Rp351
sS'myristoleoylcarnitine_(C14:1)*'
p352
g2
(g6
S'?\xc6\xdc\xb5\x84|\xd0?'
p353
tp354
Rp355
sS'genistin'
p356
g2
(g6
S'\xc5\x8f1w-\xe1\x1b@'
p357
tp358
Rp359
sS'gamma-glutamyl-alpha-lysine'
p360
g2
(g6
S';\x01M\x84\rO\xf3?'
p361
tp362
Rp363
sS'N-acetylserine'
p364
g2
(g6
S'\xc4\xb1.n\xa3\x01\xcc?'
p365
tp366
Rp367
sS'dehydrolithocholate'
p368
g2
(g6
S'\x8d(\xed\r\xbe0\xe1?'
p369
tp370
Rp371
sS'oleoyl_ethanolamide'
p372
g2
(g6
S'\\ A\xf1c\xcc\xe5?'
p373
tp374
Rp375
sS'7-ketolithocholate'
p376
g2
(g6
S'\xa1\xf81\xe6\xae%\xe4?'
p377
tp378
Rp379
sS'1-linoleoyl-GPC_(18:2)'
p380
g2
(g6
S'4\x116<\xbdR\xf5?'
p381
tp382
Rp383
sS'palmitoleoyl_ethanolamide*'
p384
g2
(g6
S'\xd1"\xdb\xf9~j\xec?'
p385
tp386
Rp387
sS'N-acetylaspartate_(NAA)'
p388
g2
(g6
S'\xfa\xed\xeb\xc09#\xe6?'
p389
tp390
Rp391
sS'1-(1-enyl-palmitoyl)-2-oleoyl-GPC_(P-16:0/18:1)*'
p392
g2
(g6
S'\xe0-\x90\xa0\xf81\xf5?'
p393
tp394
Rp395
sS'linolenate_[alpha_or_gamma;_(18:3n3_or_6)]'
p396
g2
(g6
S'\xdeq\x8a\x8e\xe4\xf2\xe9?'
p397
tp398
Rp399
sS'2,3-dihydroxy-2-methylbutyrate'
p400
g2
(g6
S'\x00\x00\x00\x00\x00\x00\xf0?'
p401
tp402
Rp403
sS'2,3-dihydroxyisovalerate'
p404
g2
(g6
S'RI\x9d\x80&\xc2\xf1?'
p405
tp406
Rp407
sS'butyrylcarnitine_(C4)'
p408
g2
(g6
S'\x90\xa0\xf81\xe6\xae\xcd?'
p409
tp410
Rp411
sS'N-acetylglycine'
p412
g2
(g6
S'\xb0\x03\xe7\x8c(\xed\xeb?'
p413
tp414
Rp415
sS'N-acetylhistidine'
p416
g2
(g6
S'\x9f\xab\xad\xd8_v\xeb?'
p417
tp418
Rp419
sS'chrysoeriol'
p420
g2
(g6
S',\xd4\x9a\xe6\x1d\xa7\xe6?'
p421
tp422
Rp423
sS'pro-hydroxy-pro'
p424
g2
(g6
S';\xdfO\x8d\x97n\xd6?'
p425
tp426
Rp427
sS'urate'
p428
g2
(g6
S'\x14?\xc6\xdc\xb5\x84\xe8?'
p429
tp430
Rp431
sS'suberate_(octanedioate)'
p432
g2
(g6
S'xz\xa5,C\x1c\xf8?'
p433
tp434
Rp435
sS'suberoylcarnitine_(C8-DC)'
p436
g2
(g6
S'\xa6\x9b\xc4 \xb0r\xf4?'
p437
tp438
Rp439
sS'stearoyl_sphingomyelin_(d18:1/18:0)'
p440
g2
(g6
S'\x9d\x80&\xc2\x86\xa7\xd7?'
p441
tp442
Rp443
sS'13-HODE_+_9-HODE'
p444
g2
(g6
S'{\x83/L\xa6\n\xf0?'
p445
tp446
Rp447
sS'gentisate'
p448
g2
(g6
S'_\x98L\x15\x8cJ\xf1?'
p449
tp450
Rp451
sS'2-hydroxy-3-methylvalerate'
p452
g2
(g6
S'%u\x02\x9a\x08\x1b\x03@'
p453
tp454
Rp455
sS'beta-muricholate'
p456
g2
(g6
S'\xb7\xd1\x00\xde\x02\t\xd2?'
p457
tp458
Rp459
sS'verbascose'
p460
g2
(g6
S'\xb0rh\x91\xed|\xff?'
p461
tp462
Rp463
sS"2'-deoxycytidine_5'-monophosphate"
p464
g2
(g6
S'\xdeq\x8a\x8e\xe4\xf2\xbf?'
p465
tp466
Rp467
sS'beta-cryptoxanthin'
p468
g2
(g6
S'P\x8d\x97n\x12\x83\xee?'
p469
tp470
Rp471
sS'3-hydroxydecanoate'
p472
g2
(g6
S'C\x1c\xeb\xe26\x1a\xf0?'
p473
tp474
Rp475
sS'3-ketosphinganine'
p476
g2
(g6
S')\\\x8f\xc2\xf5(\x9c?'
p477
tp478
Rp479
sS'thiamin_monophosphate'
p480
g2
(g6
S'\xc3\xd3+e\x19\xe2\xd4?'
p481
tp482
Rp483
sS'biotin'
p484
g2
(g6
S'\x07\xce\x19Q\xda\x1b\xc4?'
p485
tp486
Rp487
sS'N6-carbamoylthreonyladenosine'
p488
g2
(g6
S'\xc5\xfe\xb2{\xf2\xb0\xf3?'
p489
tp490
Rp491
sS'N-acetylalanine'
p492
g2
(g6
S'\x83\xc0\xca\xa1E\xb6\xf2?'
p493
tp494
Rp495
sS'N-acetylleucine'
p496
g2
(g6
S'\t\x8a\x1fc\xeeZ\xd6?'
p497
tp498
Rp499
sS'isobutyrylglycine'
p500
g2
(g6
S'\x0e-\xb2\x9d\xef\xa7\xf0?'
p501
tp502
Rp503
sS'3-hydroxypyridine'
p504
g2
(g6
S'\xee\xeb\xc09#J\xed?'
p505
tp506
Rp507
sS'5-dodecenoate_(12:1n7)'
p508
g2
(g6
S'\xd0D\xd8\xf0\xf4J\xf8?'
p509
tp510
Rp511
sS'4-hydroxycinnamate_sulfate'
p512
g2
(g6
S'\xf1\xf4JY\x868\xe8?'
p513
tp514
Rp515
sS'1-(1-enyl-palmitoyl)-2-oleoyl-GPE_(P-16:0/18:1)*'
p516
g2
(g6
S'\xb8@\x82\xe2\xc7\x98\xeb?'
p517
tp518
Rp519
sS'leucylglutamine*'
p520
g2
(g6
S'o\x81\x04\xc5\x8f1\xe7?'
p521
tp522
Rp523
sS'valylglutamine'
p524
g2
(g6
S'\xdc\xd7\x81sF\x94\xee?'
p525
tp526
Rp527
sS'nicotinamide_riboside'
p528
g2
(g6
S'\x07\xf0\x16HP\xfc\xe6?'
p529
tp530
Rp531
sS'arabonate/xylonate'
p532
g2
(g6
S'd;\xdfO\x8d\x97\xe6?'
p533
tp534
Rp535
sS'galactitol_(dulcitol)'
p536
g2
(g6
S'\xf2\xd2Mb\x10X\xa9?'
p537
tp538
Rp539
sS'sucrose'
p540
g2
(g6
S'\xdb\xf9~j\xbct\t@'
p541
tp542
Rp543
sS'gulonate*'
p544
g2
(g6
S'\xc5\x8f1w-!\xcf?'
p545
tp546
Rp547
sS'glutamate,_gamma-methyl_ester'
p548
g2
(g6
S'\xbak\t\xf9\xa0g\xe5?'
p549
tp550
Rp551
sS'3-methylhistidine'
p552
g2
(g6
S'\xcaT\xc1\xa8\xa4N\xd4?'
p553
tp554
Rp555
sS'oleoylcarnitine_(C18:1)'
p556
g2
(g6
S'\x93\xa9\x82QI\x9d\xe6?'
p557
tp558
Rp559
sS'3-methyl-2-oxovalerate'
p560
g2
(g6
S'q\x1b\r\xe0-\x90\xf0?'
p561
tp562
Rp563
sS'apigenin_7-O(6-malonyl-beta-D-glucoside)'
p564
g2
(g6
S'\xe5\xf2\x1f\xd2o_\xf3?'
p565
tp566
Rp567
sS'ornithine'
p568
g2
(g6
S'\xb8@\x82\xe2\xc7\x98\xd3?'
p569
tp570
Rp571
sS'hippurate'
p572
g2
(g6
S'M\x15\x8cJ\xea\x04\xe8?'
p573
tp574
Rp575
sS'5-methyluridine_(ribothymidine)'
p576
g2
(g6
S'\x19\xe2X\x17\xb7\xd1\xc0?'
p577
tp578
Rp579
sS'3-sialyllactose'
p580
g2
(g6
S'\xaa\x82QI\x9d\x80\xee?'
p581
tp582
Rp583
sS'linoleoyl-docosahexaenoyl-glycerol_(18:2/22:6)_[1]*'
p584
g2
(g6
S'\xb4\xc8v\xbe\x9f\x1a\xe3?'
p585
tp586
Rp587
sS'isobutyrylcarnitine_(C4)'
p588
g2
(g6
S'\x98L\x15\x8cJ\xea\xe2?'
p589
tp590
Rp591
sS'methionine_sulfoxide'
p592
g2
(g6
S'\x10\xe9\xb7\xaf\x03\xe7\xd4?'
p593
tp594
Rp595
sS'dodecanedioate'
p596
g2
(g6
S'\x16jM\xf3\x8eS\xf0?'
p597
tp598
Rp599
sS'lysine'
p600
g2
(g6
S'\xff!\xfd\xf6u\xe0\xe0?'
p601
tp602
Rp603
sS'orotate'
p604
g2
(g6
S'\xce\x88\xd2\xde\xe0\x8b\x10@'
p605
tp606
Rp607
sS'oleoyl-oleoyl-glycerol_(18:1/18:1)__[1]*'
p608
g2
(g6
S'H\xbf}\x1d8g\xf3?'
p609
tp610
Rp611
sS'stearidonate_(18:4n3)'
p612
g2
(g6
S'\xe36\x1a\xc0[ \xe3?'
p613
tp614
Rp615
sS'gamma-glutamylalanine'
p616
g2
(g6
S'C\xadi\xdeq\x8a\xce?'
p617
tp618
Rp619
sS'tryptophylglycine'
p620
g2
(g6
S'\x81\x04\xc5\x8f1w\xe7?'
p621
tp622
Rp623
sS'15-methylpalmitate'
p624
g2
(g6
S'\xdcF\x03x\x0b$\xdc?'
p625
tp626
Rp627
sS'pyridoxine_(Vitamin_B6)'
p628
g2
(g6
S'$(~\x8c\xb9k\x08@'
p629
tp630
Rp631
sS'choline'
p632
g2
(g6
S'\xf6\x97\xdd\x93\x87\x85\xfe?'
p633
tp634
Rp635
sS'laurylcarnitine_(C12)'
p636
g2
(g6
S'6\xab>W[\xb1\xbf?'
p637
tp638
Rp639
sS'2-ketogluconate'
p640
g2
(g6
S'\xdc\xd7\x81sF\x94\xf0?'
p641
tp642
Rp643
sS'1-docosahexaenoylglycerol_(22:6)'
p644
g2
(g6
S'\xa5N@\x13a\xc3\xd3?'
p645
tp646
Rp647
sS'3-hydroxy-3-methylglutarate'
p648
g2
(g6
S'\xb8@\x82\xe2\xc7\x98\xf5?'
p649
tp650
Rp651
sS'ethylmalonate'
p652
g2
(g6
S'\xc5 \xb0rh\x91\xe3?'
p653
tp654
Rp655
sS'3-ureidopropionate'
p656
g2
(g6
S'I.\xff!\xfd\xf6\xf2?'
p657
tp658
Rp659
sS'stearoyl-arachidonoyl-glycerol_(18:0/20:4)_[1]*'
p660
g2
(g6
S'\xb6\xf3\xfd\xd4x\xe9\xf3?'
p661
tp662
Rp663
sS'2-hydroxyglutarate'
p664
g2
(g6
S'\xb57\xf8\xc2d\xaa\xfe?'
p665
tp666
Rp667
sS'dihydroferulic_acid'
p668
g2
(g6
S'\xe4\x83\x9e\xcd\xaa\xcf\xcd?'
p669
tp670
Rp671
sS'gamma-glutamylphenylalanine'
p672
g2
(g6
S'\x0f\x9c3\xa2\xb4\xb7\x01@'
p673
tp674
Rp675
sS'1-oleoyl-GPA_(18:1)'
p676
g2
(g6
S'\x1e\x16jM\xf3\x8e\xa3?'
p677
tp678
Rp679
sS'1-dihomo-linoleoylglycerol_(20:2)'
p680
g2
(g6
S'\x9c3\xa2\xb47\xf8\xca?'
p681
tp682
Rp683
sS'carnitine'
p684
g2
(g6
S'\x99*\x18\x95\xd4\t\xe4?'
p685
tp686
Rp687
sS'1-kestose'
p688
g2
(g6
S'\x11\xc7\xba\xb8\x8d\x06\xf6?'
p689
tp690
Rp691
sS'1-stearoyl-GPI_(18:0)'
p692
g2
(g6
S'\xb5\xa6y\xc7):\xe8?'
p693
tp694
Rp695
sS'fucose'
p696
g2
(g6
S'\x00\x00\x00\x00\x00\x00\xe0?'
p697
tp698
Rp699
sS'palmitoyl_dihydrosphingomyelin_(d18:0/16:0)*'
p700
g2
(g6
S'r\xf9\x0f\xe9\xb7\xaf\xe5?'
p701
tp702
Rp703
sS'argininate*'
p704
g2
(g6
S'\xc7\xba\xb8\x8d\x06\xf0\x0e@'
p705
tp706
Rp707
sS'myo-inositol'
p708
g2
(g6
S'\x82sF\x94\xf6\x06\xeb?'
p709
tp710
Rp711
sS'uracil'
p712
g2
(g6
S'u\x02\x9a\x08\x1b\x9e\xf0?'
p713
tp714
Rp715
sS'oleoyl-arachidonoyl-glycerol_(18:1/20:4)_[2]*'
p716
g2
(g6
S'q\x1b\r\xe0-\x90\xe6?'
p717
tp718
Rp719
sS'guanosine'
p720
g2
(g6
S'\xf6\x97\xdd\x93\x87\x85\xca?'
p721
tp722
Rp723
sS'glucuronate'
p724
g2
(g6
S'\xd4\x9a\xe6\x1d\xa7\xe8\xe2?'
p725
tp726
Rp727
sS'1-stearoyl-2-arachidonoyl-GPC_(18:0/20:4)'
p728
g2
(g6
S'z\xc7):\x92\xcb\xf3?'
p729
tp730
Rp731
sS'indoleacetate'
p732
g2
(g6
S'\xcf\xf7S\xe3\xa5\x9b\xf9?'
p733
tp734
Rp735
sS'beta-guanidinopropanoate'
p736
g2
(g6
S'\xb3\x0cq\xac\x8b\xdb\xc8?'
p737
tp738
Rp739
sS'diaminopimelate'
p740
g2
(g6
S'\xe0-\x90\xa0\xf81\xe6?'
p741
tp742
Rp743
sS'quinate'
p744
g2
(g6
S';\xdfO\x8d\x97n\xca?'
p745
tp746
Rp747
sS'acetylcarnitine_(C2)'
p748
g2
(g6
S'\xad\xfa\\m\xc5\xfe\xc2?'
p749
tp750
Rp751
sS'inosine'
p752
g2
(g6
S'\xa3\x92:\x01M\x84\xcd?'
p753
tp754
Rp755
sS'4-methyl-2-oxopentanoate'
p756
g2
(g6
S"'\xa0\x89\xb0\xe1\xe9\xf5?"
p757
tp758
Rp759
sS'tyramine'
p760
g2
(g6
S'\x15\x1d\xc9\xe5?\xa4\xf0?'
p761
tp762
Rp763
sS'N-2-hydroxypalmitoyl-sphingosine_(d18:1/16:0(2OH))'
p764
g2
(g6
S'\x8cJ\xea\x044\x11\xd2?'
p765
tp766
Rp767
sS'chenodeoxycholate'
p768
g2
(g6
S'B>\xe8\xd9\xac\xfa\xd8?'
p769
tp770
Rp771
sS'oleoyl-linoleoyl-glycerol_(18:1/18:2)_[1]'
p772
g2
(g6
S'\xed\r\xbe0\x99*\xf3?'
p773
tp774
Rp775
sS'palmitoyl-palmitoyl-glycerol_(16:0/16:0)_[2]*'
p776
g2
(g6
S'\x16jM\xf3\x8eS\xf0?'
p777
tp778
Rp779
sS'glycerophosphoglycerol'
p780
g2
(g6
S'\xbb\xb8\x8d\x06\xf0\x16\xe6?'
p781
tp782
Rp783
sS'N-acetyl-1-methylhistidine*'
p784
g2
(g6
S'\xc6m4\x80\xb7@\xec?'
p785
tp786
Rp787
sS'gamma-glutamylthreonine'
p788
g2
(g6
S'B`\xe5\xd0"\xdb\xe5?'
p789
tp790
Rp791
sS'2-stearoyl-GPE_(18:0)*'
p792
g2
(g6
S'\x8c\xdbh\x00o\x81\xf1?'
p793
tp794
Rp795
sS'N-acetyl-beta-glucosaminylamine'
p796
g2
(g6
S'\xd7\xa3p=\n\xd7\xe5?'
p797
tp798
Rp799
sS'N1-Methyl-4-pyridone-3-carboxamide'
p800
g2
(g6
S'\x868\xd6\xc5m4\xf6?'
p801
tp802
Rp803
sS'ferulic_acid_4-sulfate'
p804
g2
(g6
S'=\x9bU\x9f\xab\xad\xe8?'
p805
tp806
Rp807
sS'1-stearoyl-2-linoleoyl-GPI_(18:0/18:2)'
p808
g2
(g6
S'\x03\t\x8a\x1fc\xee\xea?'
p809
tp810
Rp811
sS'xanthurenate'
p812
g2
(g6
S'\xbf}\x1d8gD\xd1?'
p813
tp814
Rp815
sS'linoleoyl-linoleoyl-glycerol_(18:2/18:2)_[1]*'
p816
g2
(g6
S'jM\xf3\x8eSt\xf3?'
p817
tp818
Rp819
sS'palmitoyl-arachidonoyl-glycerol_(16:0/20:4)_[2]*'
p820
g2
(g6
S'Zd;\xdfO\x8d\xe9?'
p821
tp822
Rp823
sS'digalactosylglycerol*'
p824
g2
(g6
S'\x92\xcb\x7fH\xbf}]?'
p825
tp826
Rp827
sS'10-nonadecenoate_(19:1n9)'
p828
g2
(g6
S'\xbc\x96\x90\x0fz6\xe1?'
p829
tp830
Rp831
sS'trans-nonadecenoate_(tr_19:1)*'
p832
g2
(g6
S'7\x89A`\xe5\xd0\x01@'
p833
tp834
Rp835
sS'oxalate_(ethanedioate)'
p836
g2
(g6
S'\xe6\xae%\xe4\x83\x9e\xd9?'
p837
tp838
Rp839
sS'4-imidazoleacetate'
p840
g2
(g6
S'G\x03x\x0b$(\xf2?'
p841
tp842
Rp843
sS'docosapentaenoate_(n3_DPA;_22:5n3)'
p844
g2
(g6
S'\xf5\xb9\xda\x8a\xfde\xdb?'
p845
tp846
Rp847
sS'4-hydroxymandelate'
p848
g2
(g6
S'\xf1\xf4JY\x868\xde?'
p849
tp850
Rp851
sS'3-(3-hydroxyphenyl)propionate_sulfate'
p852
g2
(g6
S'"\x8euq\x1b\x8d\x01@'
p853
tp854
Rp855
sS'pyruvate'
p856
g2
(g6
S'\xf8S\xe3\xa5\x9b\xc4\xfc?'
p857
tp858
Rp859
sS'indolepropionate'
p860
g2
(g6
S'\xcd;N\xd1\x91\\\xde?'
p861
tp862
Rp863
sS'formiminoglutamate'
p864
g2
(g6
S']\xfeC\xfa\xed\xeb\xf1?'
p865
tp866
Rp867
sS'1-linoleoylglycerol_(18:2)'
p868
g2
(g6
S'\x9aw\x9c\xa2#\xb9\xe4?'
p869
tp870
Rp871
sS'asparagine'
p872
g2
(g6
S'Q\xda\x1b|a2\xb5?'
p873
tp874
Rp875
sS'alpha-muricholate'
p876
g2
(g6
S'\xbaI\x0c\x02+\x87\x86?'
p877
tp878
Rp879
sS'histidine'
p880
g2
(g6
S'z6\xab>W[\xe5?'
p881
tp882
Rp883
sS'3-(4-hydroxyphenyl)propionate'
p884
g2
(g6
S'\xaa\x82QI\x9d\x80\xe2?'
p885
tp886
Rp887
sS'palmitoyl-linolenoyl-glycerol_(16:0/18:3)_[2]*'
p888
g2
(g6
S'\x8bl\xe7\xfb\xa9\xf1\xf1?'
p889
tp890
Rp891
sS'palmitoleoylcarnitine_(C16:1)*'
p892
g2
(g6
S'\xb0\x03\xe7\x8c(\xed\xe1?'
p893
tp894
Rp895
sS'galacturonate'
p896
g2
(g6
S'Nb\x10X9\xb4\xe4?'
p897
tp898
Rp899
sS'pyridoxal'
p900
g2
(g6
S'\x1d8gDio\x00@'
p901
tp902
Rp903
sS'histidylalanine'
p904
g2
(g6
S'\xd1"\xdb\xf9~j\xc4?'
p905
tp906
Rp907
sS'N-palmitoyl-sphinganine_(d18:0/16:0)'
p908
g2
(g6
S'J{\x83/L\xa6\xe8?'
p909
tp910
Rp911
sS'2-hydroxypalmitate'
p912
g2
(g6
S' \xd2o_\x07\xce\xe9?'
p913
tp914
Rp915
sS'1-(1-enyl-palmitoyl)-2-arachidonoyl-GPE_(P-16:0/20:4)*'
p916
g2
(g6
S'O\x1e\x16jM\xf3\xee?'
p917
tp918
Rp919
sS'soyasaponin_I'
p920
g2
(g6
S'\xcf\xf7S\xe3\xa5\x9b\xf2?'
p921
tp922
Rp923
sS'1-oleoyl-2-linoleoyl-GPC_(18:1/18:2)*'
p924
g2
(g6
S'U\xc1\xa8\xa4N@\xe9?'
p925
tp926
Rp927
sS'maltose'
p928
g2
(g6
S'\x06\x12\x14?\xc6\xdc\xf9?'
p929
tp930
Rp931
sS'pheophorbide_A'
p932
g2
(g6
S'\x16\xfb\xcb\xee\xc9C\x08@'
p933
tp934
Rp935
sS'3-dehydrocholate'
p936
g2
(g6
S'\xce\x88\xd2\xde\xe0\x0b\xc3?'
p937
tp938
Rp939
sS'2-myristoylglycerol_(14:0)'
p940
g2
(g6
S'\x17\xb7\xd1\x00\xde\x02\xd1?'
p941
tp942
Rp943
sS'formononetin'
p944
g2
(g6
S'\xb0\x03\xe7\x8c(\xed\xf2?'
p945
tp946
Rp947
sS'palmitoyl-myristoyl-glycerol_(16:0/14:0)_[2]'
p948
g2
(g6
S'*\xa9\x13\xd0D\xd8\xf3?'
p949
tp950
Rp951
sS'thymine'
p952
g2
(g6
S'I\x9d\x80&\xc2\x86\xed?'
p953
tp954
Rp955
sS'stachyose'
p956
g2
(g6
S'io\xf0\x85\xc9\xd4\x08@'
p957
tp958
Rp959
sS'N-acetyltyrosine'
p960
g2
(g6
S'\xd4\x9a\xe6\x1d\xa7\xe8\xc8?'
p961
tp962
Rp963
sS'putrescine'
p964
g2
(g6
S'k\x9aw\x9c\xa2#\xf5?'
p965
tp966
Rp967
sS'hydroxymethylpyrimidine'
p968
g2
(g6
S'9\xb4\xc8v\xbe\x9f\xc2?'
p969
tp970
Rp971
sS'1-linoleoyl-GPA_(18:2)*'
p972
g2
(g6
S'v\xe0\x9c\x11\xa5\xbd\xe7?'
p973
tp974
Rp975
sS'1-stearoyl-2-linoleoyl-GPC_(18:0/18:2)*'
p976
g2
(g6
S'\xc19#J{\x83\xef?'
p977
tp978
Rp979
sS'7-alpha-hydroxy-3-oxo-4-cholestenoate_(7-Hoca)'
p980
g2
(g6
S'\x10\xe9\xb7\xaf\x03\xe7\xea?'
p981
tp982
Rp983
sS'isovalerylcarnitine_(C5)'
p984
g2
(g6
S'\xc7K7\x89A`\xe9?'
p985
tp986
Rp987
sS'alpha-tocopherol'
p988
g2
(g6
S'\xb1\xe1\xe9\x95\xb2\x0c\xeb?'
p989
tp990
Rp991
sS'pyridoxamine'
p992
g2
(g6
S'Y\x17\xb7\xd1\x00\xde\xf1?'
p993
tp994
Rp995
sS'saccharopine'
p996
g2
(g6
S'r\xf9\x0f\xe9\xb7\xaf\xf0?'
p997
tp998
Rp999
sS'galactinol'
p1000
g2
(g6
S'\xef8EGr\xf9\xe9?'
p1001
tp1002
Rp1003
sS'pyrraline'
p1004
g2
(g6
S'\xd8\xf0\xf4JY\x86\xe2?'
p1005
tp1006
Rp1007
sS'cholate_sulfate'
p1008
g2
(g6
S"'\xa0\x89\xb0\xe1\xe9\xe1?"
p1009
tp1010
Rp1011
sS'N-acetylmethionine_sulfoxide'
p1012
g2
(g6
S'\xb7b\x7f\xd9=y\xc8?'
p1013
tp1014
Rp1015
sS'5-hydroxylysine'
p1016
g2
(g6
S'Gr\xf9\x0f\xe9\xb7\xf1?'
p1017
tp1018
Rp1019
sS'N6-succinyladenosine'
p1020
g2
(g6
S'\x86Z\xd3\xbc\xe3\x14\xf1?'
p1021
tp1022
Rp1023
sS'N2,N2-dimethylguanine'
p1024
g2
(g6
S'\x02+\x87\x16\xd9\xce\xa7?'
p1025
tp1026
Rp1027
sS'pyroglutamine*'
p1028
g2
(g6
S'\xe3\xc7\x98\xbb\x96\x90\xdb?'
p1029
tp1030
Rp1031
sS'allantoin'
p1032
g2
(g6
S'\x8bl\xe7\xfb\xa9\xf1\xb2?'
p1033
tp1034
Rp1035
sS'2-isopropylmalate'
p1036
g2
(g6
S'\xe8j+\xf6\x97\xdd\xdb?'
p1037
tp1038
Rp1039
sS'nicotinamide'
p1040
g2
(g6
S'\xd7\x12\xf2A\xcff\xd5?'
p1041
tp1042
Rp1043
sS'1-linoleoyl-2-linolenoyl-GPC_(18:2/18:3)*'
p1044
g2
(g6
S'=\x9bU\x9f\xab\xad\xd8?'
p1045
tp1046
Rp1047
sS'ferulylglycine_(1)'
p1048
g2
(g6
S'\xb1\xbf\xec\x9e<,\xe2?'
p1049
tp1050
Rp1051
sS'tauro-alpha-muricholate'
p1052
g2
(g6
S'\xbe0\x99*\x18\x95\xf0?'
p1053
tp1054
Rp1055
sS'1-palmitoyl-2-linoleoyl-GPE_(16:0/18:2)'
p1056
g2
(g6
S'vO\x1e\x16j\xcd\x0c@'
p1057
tp1058
Rp1059
sS'gamma-glutamylleucine'
p1060
g2
(g6
S'_)\xcb\x10\xc7\xba\xfc?'
p1061
tp1062
Rp1063
sS'equol_glucuronide'
p1064
g2
(g6
S'\x03x\x0b$(~\xd8?'
p1065
tp1066
Rp1067
sS'cholesterol'
p1068
g2
(g6
S'\x84\rO\xaf\x94e\xf0?'
p1069
tp1070
Rp1071
sS'ribose'
p1072
g2
(g6
S'\xe4\x14\x1d\xc9\xe5?\xf5?'
p1073
tp1074
Rp1075
sS'ceramide_(d18:1/17:0,_d17:1/18:0)*'
p1076
g2
(g6
S"'1\x08\xac\x1cZ\xf0?"
p1077
tp1078
Rp1079
sS'salicylate'
p1080
g2
(g6
S'k\x9aw\x9c\xa2#\xf2?'
p1081
tp1082
Rp1083
sS'1-(1-enyl-stearoyl)-2-arachidonoyl-GPE_(P-18:0/20:4)*'
p1084
g2
(g6
S'\xdf\xe0\x0b\x93\xa9\x82\xf4?'
p1085
tp1086
Rp1087
sS'nicotinamide_N-oxide'
p1088
g2
(g6
S'\xa6\nF%u\x02\xaa?'
p1089
tp1090
Rp1091
sS'gamma-glutamylglutamate'
p1092
g2
(g6
S'6<\xbdR\x96!\xee?'
p1093
tp1094
Rp1095
sS'beta-alanine'
p1096
g2
(g6
S'\x00\x00\x00\x00\x00\x00\xf0?'
p1097
tp1098
Rp1099
sS'margarate_(17:0)'
p1100
g2
(g6
S'P\xfc\x18s\xd7\x12\xe4?'
p1101
tp1102
Rp1103
sS'diacylglycerol_(14:0/18:1,_16:0/16:1)_[1]*'
p1104
g2
(g6
S'F%u\x02\x9a\x08\xeb?'
p1105
tp1106
Rp1107
sS'1-stearoyl-GPE_(18:0)'
p1108
g2
(g6
S'\x03\t\x8a\x1fc\xee\xf4?'
p1109
tp1110
Rp1111
sS'1-palmitoyl-2-oleoyl-GPG_(16:0/18:1)'
p1112
g2
(g6
S'\xfd\x87\xf4\xdb\xd7\x81\xf4?'
p1113
tp1114
Rp1115
sS'delta-tocopherol'
p1116
g2
(g6
S'?\xc6\xdc\xb5\x84|\xf3?'
p1117
tp1118
Rp1119
sS'N-acetylmethionine'
p1120
g2
(g6
S'`vO\x1e\x16j\xeb?'
p1121
tp1122
Rp1123
sS"N('1)-acetylspermidine"
p1124
g2
(g6
S'd;\xdfO\x8d\x97\xf5?'
p1125
tp1126
Rp1127
sS'glycosyl-N-palmitoyl-sphingosine_(d18:1/16:0)'
p1128
g2
(g6
S'4\x116<\xbdR\xd6?'
p1129
tp1130
Rp1131
sS'2-aminophenol_sulfate'
p1132
g2
(g6
S'\xbe\x9f\x1a/\xdd$\xf4?'
p1133
tp1134
Rp1135
sS'3-(3-hydroxyphenyl)propionate'
p1136
g2
(g6
S'\xda\x1b|a2U\xc0?'
p1137
tp1138
Rp1139
sS'2,8-quinolinediol_sulfate'
p1140
g2
(g6
S'\xa2\xb47\xf8\xc2d\xfe?'
p1141
tp1142
Rp1143
sS'1-palmitoyl-2-alpha-linolenoyl-GPC_(16:0/18:3n3)*'
p1144
g2
(g6
S'p\xce\x88\xd2\xde\xe0\xe9?'
p1145
tp1146
Rp1147
sS'hexadecanedioate'
p1148
g2
(g6
S'\x9c\xc4 \xb0r\xe8\x01@'
p1149
tp1150
Rp1151
sS'sphinganine'
p1152
g2
(g6
S']m\xc5\xfe\xb2{\xe6?'
p1153
tp1154
Rp1155
sS'N-acetyl-cadaverine'
p1156
g2
(g6
S'\xa6\nF%u\x82\x00@'
p1157
tp1158
Rp1159
sS'isocitric_lactone'
p1160
g2
(g6
S'H\xbf}\x1d8g\xf2?'
p1161
tp1162
Rp1163
sS'linoleoyl-arachidonoyl-glycerol_(18:2/20:4)_[1]*'
p1164
g2
(g6
S'\xf7\x06_\x98L\x15\xd8?'
p1165
tp1166
Rp1167
sS'malonate'
p1168
g2
(g6
S'j\xbct\x93\x18\x04\xfb?'
p1169
tp1170
Rp1171
sS'1-(1-enyl-palmitoyl)-2-arachidonoyl-GPC_(P-16:0/20:4)*'
p1172
g2
(g6
S'\xdf\xe0\x0b\x93\xa9\x82\xf3?'
p1173
tp1174
Rp1175
sS'glycylleucine'
p1176
g2
(g6
S'o\x81\x04\xc5\x8f1\xe9?'
p1177
tp1178
Rp1179
sS'stearoyl-arachidonoyl-glycerol_(18:0/20:4)_[2]*'
p1180
g2
(g6
S'<N\xd1\x91\\\xfe\xf9?'
p1181
tp1182
Rp1183
sS'N6,N6,N6-trimethyllysine'
p1184
g2
(g6
S'v\xe0\x9c\x11\xa5\xbd\xe7?'
p1185
tp1186
Rp1187
sS'choline_phosphate'
p1188
g2
(g6
S'\x03\t\x8a\x1fc\xee\xea?'
p1189
tp1190
Rp1191
sS'nicotianamine'
p1192
g2
(g6
S'\x94\xf6\x06_\x98L\xf3?'
p1193
tp1194
Rp1195
sS'oleoyl-linolenoyl-glycerol_(18:1/18:3)_[2]*'
p1196
g2
(g6
S'\xc9v\xbe\x9f\x1a/\xed?'
p1197
tp1198
Rp1199
sS'O-acetylhomoserine'
p1200
g2
(g6
S'\xf8\xc2d\xaa`T\xec?'
p1201
tp1202
Rp1203
sS'myristoleate_(14:1n5)'
p1204
g2
(g6
S'\x16\xfb\xcb\xee\xc9\xc3\xf0?'
p1205
tp1206
Rp1207
sS'threonine'
p1208
g2
(g6
S'\xbe\xc1\x17&S\x05\xe3?'
p1209
tp1210
Rp1211
sS'xanthine'
p1212
g2
(g6
S"e\xaa`TR'\xe4?"
p1213
tp1214
Rp1215
sS'leucylalanine'
p1216
g2
(g6
S'\xe0\xbe\x0e\x9c3\xa2\xe2?'
p1217
tp1218
Rp1219
sS'N-acetylmuramate'
p1220
g2
(g6
S'\x00\x00\x00\x00\x00\x00\xf0?'
p1221
tp1222
Rp1223
sS'diacetylchitobiose'
p1224
g2
(g6
S'W[\xb1\xbf\xec\x9e\xf0?'
p1225
tp1226
Rp1227
sS'palmitoyl-linoleoyl-glycerol_(16:0/18:2)_[2]*'
p1228
g2
(g6
S'\x16jM\xf3\x8eS\xf1?'
p1229
tp1230
Rp1231
sS'1-stearoyl-2-oleoyl-GPC_(18:0/18:1)'
p1232
g2
(g6
S'6<\xbdR\x96!\xee?'
p1233
tp1234
Rp1235
sS'cysteine_sulfinic_acid'
p1236
g2
(g6
S'\xa5\xbd\xc1\x17&S\xdd?'
p1237
tp1238
Rp1239
sS'1-dihomo-linolenylglycerol_(20:3)'
p1240
g2
(g6
S"\xaa`TR'\xa0\xe9?"
p1241
tp1242
Rp1243
sS'ceramide_(d18:1/20:0,_d16:1/22:0,_d20:1/18:0)*'
p1244
g2
(g6
S'\x05\xc5\x8f1w-\xc9?'
p1245
tp1246
Rp1247
sS'4-hydroxycinnamate'
p1248
g2
(g6
S' \xd2o_\x07\xce\xf3?'
p1249
tp1250
Rp1251
sS'orotidine'
p1252
g2
(g6
S'<N\xd1\x91\\\xfe\xf4?'
p1253
tp1254
Rp1255
sS'maleate'
p1256
g2
(g6
S'[B>\xe8\xd9\xac\xfa?'
p1257
tp1258
Rp1259
sS'glycylvaline'
p1260
g2
(g6
S'\xf8\xc2d\xaa`T\xee?'
p1261
tp1262
Rp1263
sS'1-oleoyl-GPG_(18:1)*'
p1264
g2
(g6
S'p\xce\x88\xd2\xde\xe0\xe9?'
p1265
tp1266
Rp1267
sS'N-acetylhistamine'
p1268
g2
(g6
S'i\x00o\x81\x04\xc5\xe7?'
p1269
tp1270
Rp1271
sS'N-acetylneuraminate'
p1272
g2
(g6
S'\xc0\xec\x9e<,\xd4\xd6?'
p1273
tp1274
Rp1275
sS'serotonin'
p1276
g2
(g6
S'6<\xbdR\x96!\xf1?'
p1277
tp1278
Rp1279
sS'maltotriose'
p1280
g2
(g6
S' A\xf1c\xcc]\xf6?'
p1281
tp1282
Rp1283
sS'2-docosahexaenoylglycerol_(22:6)*'
p1284
g2
(g6
S'\x02\xbc\x05\x12\x14?\xd2?'
p1285
tp1286
Rp1287
sS'phytosphingosine'
p1288
g2
(g6
S'jM\xf3\x8eSt\xf1?'
p1289
tp1290
Rp1291
sS'succinimide'
p1292
g2
(g6
S'j\xbct\x93\x18\x04\xf0?'
p1293
tp1294
Rp1295
sS'mevalonate'
p1296
g2
(g6
S'\x86\xc9T\xc1\xa8\xa4\x01@'
p1297
tp1298
Rp1299
sS'p-cresol_sulfate'
p1300
g2
(g6
S'\xaf%\xe4\x83\x9e\xcd\xf0?'
p1301
tp1302
Rp1303
sS'dipicolinate'
p1304
g2
(g6
S'A\xf1c\xcc]K\xf1?'
p1305
tp1306
Rp1307
sS'N-monomethylarginine'
p1308
g2
(g6
S'9\xd6\xc5m4\x80\xe7?'
p1309
tp1310
Rp1311
sS'glutamate'
p1312
g2
(g6
S'3\xc4\xb1.n\xa3\xe5?'
p1313
tp1314
Rp1315
sS'sphingomyelin_(d17:1/16:0,_d18:1/15:0,_d16:1/17:0)*'
p1316
g2
(g6
S'L7\x89A`\xe5\xd8?'
p1317
tp1318
Rp1319
sS'palmitoylcarnitine_(C16)'
p1320
g2
(g6
S'\xe9\xb7\xaf\x03\xe7\x8c\xea?'
p1321
tp1322
Rp1323
sS'cysteine'
p1324
g2
(g6
S'\xd2o_\x07\xce\x19\xf2?'
p1325
tp1326
Rp1327
sS'glucose'
p1328
g2
(g6
S'\xdc\xd7\x81sF\x14\x01@'
p1329
tp1330
Rp1331
sS'uridine'
p1332
g2
(g6
S'Y\x17\xb7\xd1\x00\xde\xca?'
p1333
tp1334
Rp1335
sS'riboflavin_(Vitamin_B2)'
p1336
g2
(g6
S"aTR'\xa0\x89\xd4?"
p1337
tp1338
Rp1339
sS'pimeloylcarnitine/3-methyladipoylcarnitine_(C7-DC)'
p1340
g2
(g6
S'\xac\xad\xd8_vO\x04@'
p1341
tp1342
Rp1343
sS'caprate_(10:0)'
p1344
g2
(g6
S'\x14?\xc6\xdc\xb5\x84\xf3?'
p1345
tp1346
Rp1347
sS'O-methyltyrosine'
p1348
g2
(g6
S'+\x18\x95\xd4\th\xf0?'
p1349
tp1350
Rp1351
sS'adipoylcarnitine_(C6-DC)'
p1352
g2
(g6
S'2\xe6\xae%\xe4\x83\xf5?'
p1353
tp1354
Rp1355
sS'enterodiol'
p1356
g2
(g6
S'\xb8\x1e\x85\xebQ\xb8\xd2?'
p1357
tp1358
Rp1359
sS'cadaverine'
p1360
g2
(g6
S'3\xc4\xb1.n\xa3\xf0?'
p1361
tp1362
Rp1363
sS'7-methylguanine'
p1364
g2
(g6
S']\xdcF\x03x\x0b\xf2?'
p1365
tp1366
Rp1367
sS'palmitoyl-palmitoyl-glycerol_(16:0/16:0)_[1]*'
p1368
g2
(g6
S'\xdf\xe0\x0b\x93\xa9\x82\xef?'
p1369
tp1370
Rp1371
sS'cholate'
p1372
g2
(g6
S'V}\xae\xb6b\x7f\xc1?'
p1373
tp1374
Rp1375
sS'1-pentadecanoylglycerol_(15:0)'
p1376
g2
(g6
S'\xcc\x7fH\xbf}\x1d\xd0?'
p1377
tp1378
Rp1379
sS'gamma-glutamylmethionine'
p1380
g2
(g6
S'\x11\xc7\xba\xb8\x8d\x06\xf8?'
p1381
tp1382
Rp1383
sS'N-acetylcitrulline'
p1384
g2
(g6
S'\x18\x95\xd4\th"\xe6?'
p1385
tp1386
Rp1387
sS'cysteinylglycine'
p1388
g2
(g6
S"\xec/\xbb'\x0f\x0b\xf3?"
p1389
tp1390
Rp1391
sS'13-methylmyristate'
p1392
g2
(g6
S'\x1e\xa7\xe8H.\xff\xe7?'
p1393
tp1394
Rp1395
sS'1-stearoyl-GPG_(18:0)'
p1396
g2
(g6
S'\x12\x83\xc0\xca\xa1E\xf0?'
p1397
tp1398
Rp1399
sS'carotene_diol_(1)'
p1400
g2
(g6
S';p\xce\x88\xd2\xde\xf0?'
p1401
tp1402
Rp1403
sS'1,2-dipalmitoyl-GPC_(16:0/16:0)'
p1404
g2
(g6
S'\x94\x87\x85Z\xd3\xbc\xf0?'
p1405
tp1406
Rp1407
sS'3-methyl-2-oxobutyrate'
p1408
g2
(g6
S'\xdch\x00o\x81\x04\xf2?'
p1409
tp1410
Rp1411
sS'proline'
p1412
g2
(g6
S"W\xec/\xbb'\x0f\xd7?"
p1413
tp1414
Rp1415
sS'serine'
p1416
g2
(g6
S'\x0c\x93\xa9\x82QI\xeb?'
p1417
tp1418
Rp1419
sS'arachidate_(20:0)'
p1420
g2
(g6
S'V\x9f\xab\xad\xd8_\xe6?'
p1421
tp1422
Rp1423
sS'lithocholate'
p1424
g2
(g6
S'\x14\xaeG\xe1z\x14\xde?'
p1425
tp1426
Rp1427
sS'N-acetylcysteine'
p1428
g2
(g6
S'\x96\xb2\x0cq\xac\x8b\xf2?'
p1429
tp1430
Rp1431
sS"uridine_5'-monophosphate_(UMP)"
p1432
g2
(g6
S'\xd6\xc5m4\x80\xb7\xc8?'
p1433
tp1434
Rp1435
sS'digalacturonic_acid'
p1436
g2
(g6
S'\xe7\x8c(\xed\r\xbe\xc8?'
p1437
tp1438
Rp1439
sS'lactate'
p1440
g2
(g6
S'\xb4\xc8v\xbe\x9f\x9a\n@'
p1441
tp1442
Rp1443
sS'thiamin_(Vitamin_B1)'
p1444
g2
(g6
S'_\x07\xce\x19Q\xda\xdb?'
p1445
tp1446
Rp1447
sS'carotene_diol_(3)'
p1448
g2
(g6
S'\xc7\xba\xb8\x8d\x06\xf0\xee?'
p1449
tp1450
Rp1451
sS'S-(3-hydroxypropyl)mercapturic_acid_(HPMA)'
p1452
g2
(g6
S'J{\x83/L\xa6\xfb?'
p1453
tp1454
Rp1455
sS"uridine-2',3'-cyclic_monophosphate"
p1456
g2
(g6
S'\n\xd7\xa3p=\n\xa7?'
p1457
tp1458
Rp1459
sS"guanosine-2',3'-cyclic_monophosphate"
p1460
g2
(g6
S'\xc8\x98\xbb\x96\x90\x0f\xd2?'
p1461
tp1462
Rp1463
sS'1-palmitoyl-2-linoleoyl-GPC_(16:0/18:2)'
p1464
g2
(g6
S'\xbe\xc1\x17&S\x05\xed?'
p1465
tp1466
Rp1467
sS'N-methylpipecolate'
p1468
g2
(g6
S'\xf6\x97\xdd\x93\x87\x85\xf4?'
p1469
tp1470
Rp1471
sS'1-palmitoylglycerol_(16:0)'
p1472
g2
(g6
S'\x0bF%u\x02\x9a\xe6?'
p1473
tp1474
Rp1475
sS'5-aminolevulinate'
p1476
g2
(g6
S'\x04V\x0e-\xb2\x9d\xf2?'
p1477
tp1478
Rp1479
sS'ribonate'
p1480
g2
(g6
S'\x0b$(~\x8c\xb9\xf1?'
p1481
tp1482
Rp1483
sS'tauro-beta-muricholate'
p1484
g2
(g6
S'1\x08\xac\x1cZd\xeb?'
p1485
tp1486
Rp1487
sS'daidzin'
p1488
g2
(g6
S'\t\xf9\xa0g\xb3\xea\xf3?'
p1489
tp1490
Rp1491
sS'nicotinate'
p1492
g2
(g6
S'\x86\xc9T\xc1\xa8\xa4\xf5?'
p1493
tp1494
Rp1495
sS'adenine'
p1496
g2
(g6
S':#J{\x83/\xec?'
p1497
tp1498
Rp1499
sS'N6-acetyllysine'
p1500
g2
(g6
S'\x96C\x8bl\xe7\xfb\xd1?'
p1501
tp1502
Rp1503
sS'glucarate_(saccharate)'
p1504
g2
(g6
S'\x1e\x16jM\xf3\x8e\xb3?'
p1505
tp1506
Rp1507
sS'glutaminylleucine'
p1508
g2
(g6
S'\xb3{\xf2\xb0Pk\xe0?'
p1509
tp1510
Rp1511
sS'5,6-dihydrouracil'
p1512
g2
(g6
S'2U0*\xa9\x13\xec?'
p1513
tp1514
Rp1515
sS'methylmalonate_(MMA)'
p1516
g2
(g6
S'\x8a\x8e\xe4\xf2\x1f\xd2\xfb?'
p1517
tp1518
Rp1519
sS'2-linoleoylglycerol_(18:2)'
p1520
g2
(g6
S'^K\xc8\x07=\x9b\xe1?'
p1521
tp1522
Rp1523
sS'sphingomyelin_(d18:1/24:1,_d18:2/24:0)*'
p1524
g2
(g6
S'F\x94\xf6\x06_\x98\xd8?'
p1525
tp1526
Rp1527
sS'mannose'
p1528
g2
(g6
S'\xc9v\xbe\x9f\x1a/\xc5?'
p1529
tp1530
Rp1531
sS'dihydroorotate'
p1532
g2
(g6
S'\xb3{\xf2\xb0Pk\xd2?'
p1533
tp1534
Rp1535
sS'sinapate'
p1536
g2
(g6
S'9\xb4\xc8v\xbe\x9f\xe6?'
p1537
tp1538
Rp1539
sS'myristate_(14:0)'
p1540
g2
(g6
S'V\x9f\xab\xad\xd8_\xe8?'
p1541
tp1542
Rp1543
sS'erucate_(22:1n9)'
p1544
g2
(g6
S'\x10X9\xb4\xc8v\xec?'
p1545
tp1546
Rp1547
sS'palmitoyl_sphingomyelin_(d18:1/16:0)'
p1548
g2
(g6
S'j\xbct\x93\x18\x04\xf0?'
p1549
tp1550
Rp1551
sS'ceramide_(d18:1/14:0,_d16:1/16:0)*'
p1552
g2
(g6
S'\x80H\xbf}\x1d8\xef?'
p1553
tp1554
Rp1555
sS'diacylglycerol_(16:1/18:2_[2],_16:0/18:3_[1])*'
p1556
g2
(g6
S'\x0c\x02+\x87\x16\xd9\xee?'
p1557
tp1558
Rp1559
sS'N-carbamoylaspartate'
p1560
g2
(g6
S'\xa1\xd64\xef8E\xdf?'
p1561
tp1562
Rp1563
sS'cysteine_s-sulfate'
p1564
g2
(g6
S'V}\xae\xb6b\x7f\xef?'
p1565
tp1566
Rp1567
sS'1-stearoyl-2-arachidonoyl-GPI_(18:0/20:4)'
p1568
g2
(g6
S'\x93:\x01M\x84\r\xf4?'
p1569
tp1570
Rp1571
sS'N6,N6-dimethyladenosine'
p1572
g2
(g6
S'\xce\xaa\xcf\xd5V\xec\xeb?'
p1573
tp1574
Rp1575
sS'mannitol/sorbitol'
p1576
g2
(g6
S'\x0b\xb5\xa6y\xc7)\xde?'
p1577
tp1578
Rp1579
sS'1-palmitoyl-2-arachidonoyl-GPC_(16:0/20:4n6)'
p1580
g2
(g6
S't$\x97\xff\x90~\xf0?'
p1581
tp1582
Rp1583
sS'retinol_(Vitamin_A)'
p1584
g2
(g6
S'h"lxz\xa5\xd8?'
p1585
tp1586
Rp1587
sS'N2,N2-dimethylguanosine'
p1588
g2
(g6
S'\x85|\xd0\xb3Y\xf5\xd1?'
p1589
tp1590
Rp1591
sS'10-hydroxystearate'
p1592
g2
(g6
S'\xce\xaa\xcf\xd5V\xec\xc7?'
p1593
tp1594
Rp1595
sS'1-methylimidazoleacetate'
p1596
g2
(g6
S'\xa8\xc6K7\x89A\xf2?'
p1597
tp1598
Rp1599
sS'chlorogenate'
p1600
g2
(g6
S'V}\xae\xb6b\x7f\xf4?'
p1601
tp1602
Rp1603
sS'gamma-glutamylvaline'
p1604
g2
(g6
S'%u\x02\x9a\x08\x1b\xf3?'
p1605
tp1606
Rp1607
sS'inositol_hexakisphosphate'
p1608
g2
(g6
S'\x19\xe2X\x17\xb7\xd1\xb0?'
p1609
tp1610
Rp1611
sS'1-palmitoyl-GPE_(16:0)'
p1612
g2
(g6
S'\x89A`\xe5\xd0\xa2\x06@'
p1613
tp1614
Rp1615
sS'ursodeoxycholate'
p1616
g2
(g6
S'\x9c3\xa2\xb47\xf8\xb2?'
p1617
tp1618
Rp1619
sS'N-formylmethionine'
p1620
g2
(g6
S'\n\xd7\xa3p=\n\xe9?'
p1621
tp1622
Rp1623
sS'N-alpha-acetylornithine'
p1624
g2
(g6
S'\xbe\x9f\x1a/\xdd$\xe6?'
p1625
tp1626
Rp1627
sS'linolenoyl-linolenoyl-glycerol_(18:3/18:3)_[2]*'
p1628
g2
(g6
S'\xa6\x9b\xc4 \xb0r\xe2?'
p1629
tp1630
Rp1631
sS'palmitoyl-oleoyl-glycerol_(16:0/18:1)_[1]*'
p1632
g2
(g6
S')\xcb\x10\xc7\xba\xb8\xf1?'
p1633
tp1634
Rp1635
sS'genistein'
p1636
g2
(g6
S'\xb8\xaf\x03\xe7\x8c(\xf4?'
p1637
tp1638
Rp1639
sS'1-linoleoyl-2-arachidonoyl-GPC_(18:2/20:4n6)*'
p1640
g2
(g6
S'w\xbe\x9f\x1a/\xdd\xec?'
p1641
tp1642
Rp1643
sS'1-(1-enyl-stearoyl)-GPE_(P-18:0)*'
p1644
g2
(g6
S'\xd6\xc5m4\x80\xb7\xee?'
p1645
tp1646
Rp1647
sS'maltopentaose'
p1648
g2
(g6
S'w\xbe\x9f\x1a/\xdd\x0f@'
p1649
tp1650
Rp1651
sS'N-acetylthreonine'
p1652
g2
(g6
S'\xee|?5^\xba\xe5?'
p1653
tp1654
Rp1655
sS'N-acetylpyrraline'
p1656
g2
(g6
S'\xd7\xa3p=\n\xd7\xe9?'
p1657
tp1658
Rp1659
sS"2'-deoxyguanosine"
p1660
g2
(g6
S'\x7f\xfb:p\xce\x88\xda?'
p1661
tp1662
Rp1663
sS'S-1-pyrroline-5-carboxylate'
p1664
g2
(g6
S'd]\xdcF\x03x\xf5?'
p1665
tp1666
Rp1667
sS'pentadecanoate_(15:0)'
p1668
g2
(g6
S'Zd;\xdfO\x8d\xe1?'
p1669
tp1670
Rp1671
sS'tricarballylate'
p1672
g2
(g6
S'\x85|\xd0\xb3Y\xf5\xed?'
p1673
tp1674
Rp1675
sS'gamma-tocotrienol'
p1676
g2
(g6
S'\xd8\xf0\xf4JY\x86\xe6?'
p1677
tp1678
Rp1679
sS'N-acetyltaurine'
p1680
g2
(g6
S"W\xec/\xbb'\x0f\xe1?"
p1681
tp1682
Rp1683
sS'16-hydroxypalmitate'
p1684
g2
(g6
S'\x96C\x8bl\xe7\xfb\xef?'
p1685
tp1686
Rp1687
sS'2-acetamidophenol_sulfate'
p1688
g2
(g6
S'\xb6\xf3\xfd\xd4x\xe9\xf5?'
p1689
tp1690
Rp1691
sS'succinylcarnitine_(C4-DC)'
p1692
g2
(g6
S'\x8c\xdbh\x00o\x81\xf1?'
p1693
tp1694
Rp1695
sS'N-glycolylneuraminate'
p1696
g2
(g6
S'\x83/L\xa6\nF\xcd?'
p1697
tp1698
Rp1699
sS'naringenin'
p1700
g2
(g6
S"aTR'\xa0\x89\xf9?"
p1701
tp1702
Rp1703
sS'1-palmitoyl-2-arachidonoyl-GPE_(16:0/20:4)*'
p1704
g2
(g6
S'\x85\xebQ\xb8\x1e\x85\xf3?'
p1705
tp1706
Rp1707
sS'shikimate'
p1708
g2
(g6
S'\x8d(\xed\r\xbe0\x89?'
p1709
tp1710
Rp1711
sS'1-palmitoyl-GPC_(16:0)'
p1712
g2
(g6
S'.\x90\xa0\xf81\xe6\xf1?'
p1713
tp1714
Rp1715
sS'linoleoyl-linolenoyl-glycerol_(18:2/18:3)_[2]*'
p1716
g2
(g6
S'\x8c\xb9k\t\xf9\xa0\xf5?'
p1717
tp1718
Rp1719
sS'1-(1-enyl-palmitoyl)-2-linoleoyl-GPE_(P-16:0/18:2)*'
p1720
g2
(g6
S'\x00\x00\x00\x00\x00\x00\xf0?'
p1721
tp1722
Rp1723
sS'12-HETE'
p1724
g2
(g6
S'R\xb8\x1e\x85\xebQ\xe2?'
p1725
tp1726
Rp1727
sS'diacylglycerol_(14:0/18:1,_16:0/16:1)_[2]*'
p1728
g2
(g6
S'\x00\x00\x00\x00\x00\x00\xf0?'
p1729
tp1730
Rp1731
sS'myristoyl-linoleoyl-glycerol_(14:0/18:2)_[2]*'
p1732
g2
(g6
S'\xa0\x1a/\xdd$\x06\xeb?'
p1733
tp1734
Rp1735
sS'1-methylhistamine'
p1736
g2
(g6
S'\xd1\x91\\\xfeC\xfa\xed?'
p1737
tp1738
Rp1739
sS'deoxycarnitine'
p1740
g2
(g6
S'\xc3\xd3+e\x19\xe2\xf7?'
p1741
tp1742
Rp1743
sS'alanine'
p1744
g2
(g6
S'\x01M\x84\rO\xaf\xe2?'
p1745
tp1746
Rp1747
sS'glutarylcarnitine_(C5-DC)'
p1748
g2
(g6
S'\xa4\xdf\xbe\x0e\x9c3\xf7?'
p1749
tp1750
Rp1751
sS"2'-deoxyuridine"
p1752
g2
(g6
S'\x89\xd2\xde\xe0\x0b\x93\xe5?'
p1753
tp1754
Rp1755
sS'imidazole_propionate'
p1756
g2
(g6
S'\x0e\xbe0\x99*\x18\xe5?'
p1757
tp1758
Rp1759
sS'N-stearoyl-sphingosine_(d18:1/18:0)*'
p1760
g2
(g6
S'\x04V\x0e-\xb2\x9d\xf0?'
p1761
tp1762
Rp1763
sS'linoleoylcarnitine_(C18:2)*'
p1764
g2
(g6
S'\xc7K7\x89A`\xef?'
p1765
tp1766
Rp1767
sS'N-formylphenylalanine'
p1768
g2
(g6
S"R'\xa0\x89\xb0\xe1\xdd?"
p1769
tp1770
Rp1771
sS'citraconate/glutaconate'
p1772
g2
(g6
S'}\xae\xb6b\x7f\xd9\xfc?'
p1773
tp1774
Rp1775
sS'phosphate'
p1776
g2
(g6
S',\xd4\x9a\xe6\x1d\xa7\xe8?'
p1777
tp1778
Rp1779
sS'methionine'
p1780
g2
(g6
S'2U0*\xa9\x13\xe8?'
p1781
tp1782
Rp1783
sS'glutamine'
p1784
g2
(g6
S'\xf6\x97\xdd\x93\x87\x85\xe2?'
p1785
tp1786
Rp1787
sS'2-aminobutyrate'
p1788
g2
(g6
S'\xca\xc3B\xadi\xde\xe3?'
p1789
tp1790
Rp1791
sS'glucose_6-phosphate'
p1792
g2
(g6
S'\xd9\xce\xf7S\xe3\xa5\xab?'
p1793
tp1794
Rp1795
sS'taurochenodeoxycholate_sulfate'
p1796
g2
(g6
S'\xd4\x9a\xe6\x1d\xa7h\x06@'
p1797
tp1798
Rp1799
sS'creatine'
p1800
g2
(g6
S'\xbb\xb8\x8d\x06\xf0\x16\xea?'
p1801
tp1802
Rp1803
sS'6-oxolithocholate'
p1804
g2
(g6
S'\xdeq\x8a\x8e\xe4\xf2o?'
p1805
tp1806
Rp1807
sS'xanthosine'
p1808
g2
(g6
S'\xcc\x7fH\xbf}\x1d\xa8?'
p1809
tp1810
Rp1811
sS'gamma-glutamyltyrosine'
p1812
g2
(g6
S'\x08=\x9bU\x9f\xab\xef?'
p1813
tp1814
Rp1815
sS'liquiritigenin'
p1816
g2
(g6
S'\xf9\x0f\xe9\xb7\xaf\x03\xc7?'
p1817
tp1818
Rp1819
sS'N-acetylasparagine'
p1820
g2
(g6
S'p_\x07\xce\x19Q\xee?'
p1821
tp1822
Rp1823
sS'indolin-2-one'
p1824
g2
(g6
S'\xdeq\x8a\x8e\xe4\xf2\x7f?'
p1825
tp1826
Rp1827
sS'methylsuccinate'
p1828
g2
(g6
S'=,\xd4\x9a\xe6\x1d\xef?'
p1829
tp1830
Rp1831
sS'N-acetyltryptophan'
p1832
g2
(g6
S'|\xf2\xb0Pk\x9a\xcf?'
p1833
tp1834
Rp1835
sS'3-(4-hydroxyphenyl)lactate'
p1836
g2
(g6
S'h\x91\xed|?5\x08@'
p1837
tp1838
Rp1839
sS'oleoyl-oleoyl-glycerol_(18:1/18:1)_[2]*'
p1840
g2
(g6
S'\x84\x9e\xcd\xaa\xcf\xd5\xec?'
p1841
tp1842
Rp1843
sS'oleoyl-linoleoyl-glycerol_(18:1/18:2)_[2]'
p1844
g2
(g6
S'\x00\x00\x00\x00\x00\x00\xf0?'
p1845
tp1846
Rp1847
sS'galactarate_(mucic_acid)'
p1848
g2
(g6
S'\x81\x95C\x8bl\xe7\xbb?'
p1849
tp1850
Rp1851
sS'1-palmitoleoyl-2-linoleoyl-GPC_(16:1/18:2)*'
p1852
g2
(g6
S'|a2U0*\xdd?'
p1853
tp1854
Rp1855
sS'hexanoylcarnitine_(C6)'
p1856
g2
(g6
S'\xcc]K\xc8\x07=\xbb?'
p1857
tp1858
Rp1859
sS'linoleate_(18:2n6)'
p1860
g2
(g6
S'\xfb\xcb\xee\xc9\xc3B\xe5?'
p1861
tp1862
Rp1863
sS'gamma-glutamyl-epsilon-lysine'
p1864
g2
(g6
S'\xd1"\xdb\xf9~j\xe8?'
p1865
tp1866
Rp1867
sS'vanillate'
p1868
g2
(g6
S'\xe36\x1a\xc0[ \xc9?'
p1869
tp1870
Rp1871
sS'2-hydroxydecanoate'
p1872
g2
(g6
S'e\x19\xe2X\x17\xb7\xf0?'
p1873
tp1874
Rp1875
sS'nicotinamide_ribonucleotide_(NMN)'
p1876
g2
(g6
S'HP\xfc\x18s\xd7\xa2?'
p1877
tp1878
Rp1879
sS'histamine'
p1880
g2
(g6
S'G\x03x\x0b$(\xf2?'
p1881
tp1882
Rp1883
sS'ursocholate'
p1884
g2
(g6
S'\xb9\xfc\x87\xf4\xdb\xd7\xdd?'
p1885
tp1886
Rp1887
sS'1-linolenoylglycerol_(18:3)'
p1888
g2
(g6
S'x\x0b$(~\x8c\xe5?'
p1889
tp1890
Rp1891
sS'3-hydroxyhexanoate'
p1892
g2
(g6
S'm\xc5\xfe\xb2{\xf2\xe6?'
p1893
tp1894
Rp1895
sS'threonylphenylalanine'
p1896
g2
(g6
S';\xdfO\x8d\x97n\xda?'
p1897
tp1898
Rp1899
sS'1-oleoyl-2-linoleoyl-GPE_(18:1/18:2)*'
p1900
g2
(g6
S'\x05\xc5\x8f1w\xad\x04@'
p1901
tp1902
Rp1903
sS'homocitrulline'
p1904
g2
(g6
S'~\x8c\xb9k\t\xf9\xd4?'
p1905
tp1906
Rp1907
sS'agmatine'
p1908
g2
(g6
S'\x1d8gDi/&@'
p1909
tp1910
Rp1911
sS'guanine'
p1912
g2
(g6
S'w-!\x1f\xf4l\xea?'
p1913
tp1914
Rp1915
sS'2,8-quinolinediol'
p1916
g2
(g6
S'\xa4\xdf\xbe\x0e\x9c3\xec?'
p1917
tp1918
Rp1919
sS'N-methyl-GABA'
p1920
g2
(g6
S'\xaa\x82QI\x9d\x80\xf4?'
p1921
tp1922
Rp1923
sS'palmitate_(16:0)'
p1924
g2
(g6
S'\x18&S\x05\xa3\x92\xe4?'
p1925
tp1926
Rp1927
sS'prolylglycine'
p1928
g2
(g6
S'/\xdd$\x06\x81\x95\xe3?'
p1929
tp1930
Rp1931
sS'2-hydroxybehenate'
p1932
g2
(g6
S'\x90\xa0\xf81\xe6\xae\xe5?'
p1933
tp1934
Rp1935
sS'arachidonate_(20:4n6)'
p1936
g2
(g6
S'?W[\xb1\xbf\xec\xda?'
p1937
tp1938
Rp1939
sS'1-stearoyl-GPS_(18:0)*'
p1940
g2
(g6
S'd;\xdfO\x8d\x97\xea?'
p1941
tp1942
Rp1943
sS'N-trimethyl_5-aminovalerate'
p1944
g2
(g6
S'\x0bF%u\x02\x9a\xe0?'
p1945
tp1946
Rp1947
sS'N-palmitoylglycine'
p1948
g2
(g6
S'$(~\x8c\xb9k\xd1?'
p1949
tp1950
Rp1951
sS'palmitoyl-docosahexaenoyl-glycerol_(16:0/22:6)_[2]*'
p1952
g2
(g6
S'x\x9c\xa2#\xb9\xfc\xd7?'
p1953
tp1954
Rp1955
sS'1-stearoyl-2-arachidonoyl-GPE_(18:0/20:4)'
p1956
g2
(g6
S'_\x07\xce\x19Q\xda\xf3?'
p1957
tp1958
Rp1959
sS'4-guanidinobutanoate'
p1960
g2
(g6
S'\x00\x91~\xfb:p\xf8?'
p1961
tp1962
Rp1963
sS'2-oxoarginine*'
p1964
g2
(g6
S'\xd0\xb3Y\xf5\xb9\xda\xea?'
p1965
tp1966
Rp1967
sS'6-beta-hydroxylithocholate'
p1968
g2
(g6
S'\xf4\xfd\xd4x\xe9&\xc9?'
p1969
tp1970
Rp1971
sS'dihomo-linolenate_(20:3n3_or_n6)'
p1972
g2
(g6
S'N\xd1\x91\\\xfeC\xde?'
p1973
tp1974
Rp1975
sS"2'-deoxyadenosine_5'-monophosphate"
p1976
g2
(g6
S'\x9a\x99\x99\x99\x99\x99\xb9?'
p1977
tp1978
Rp1979
sS'spermidine'
p1980
g2
(g6
S'\x0b$(~\x8c\xb9\xf0?'
p1981
tp1982
Rp1983
sS'biopterin'
p1984
g2
(g6
S'u\x93\x18\x04V\x0e\xef?'
p1985
tp1986
Rp1987
sS'N-methylalanine'
p1988
g2
(g6
S'\x868\xd6\xc5m4\xe0?'
p1989
tp1990
Rp1991
sS'chiro-inositol'
p1992
g2
(g6
S'\xc1\xca\xa1E\xb6\xf3\xf6?'
p1993
tp1994
Rp1995
sS'argininosuccinate'
p1996
g2
(g6
S'\xd3Mb\x10X9\xf3?'
p1997
tp1998
Rp1999
sS'pinitol'
p2000
g2
(g6
S'$\x97\xff\x90~\xfb\xf3?'
p2001
tp2002
Rp2003
sS'threonate'
p2004
g2
(g6
S'\xd7\xa3p=\n\xd7\xdf?'
p2005
tp2006
Rp2007
sS'9,10-DiHOME'
p2008
g2
(g6
S'.\xff!\xfd\xf6u\xe8?'
p2009
tp2010
Rp2011
sS'naringenin_7-O-glucoside'
p2012
g2
(g6
S'\x9b\xe6\x1d\xa7\xe8H\xe4?'
p2013
tp2014
Rp2015
sS'glycerate'
p2016
g2
(g6
S'\x8bl\xe7\xfb\xa9\xf1\xe8?'
p2017
tp2018
Rp2019
sS'5-aminovalerate'
p2020
g2
(g6
S'$\xb9\xfc\x87\xf4\xdb\x07@'
p2021
tp2022
Rp2023
sS'ectoine'
p2024
g2
(g6
S'\xa0\x89\xb0\xe1\xe9\x95\xf8?'
p2025
tp2026
Rp2027
sS'tauroursodeoxycholate'
p2028
g2
(g6
S'\xc9v\xbe\x9f\x1a/\xe9?'
p2029
tp2030
Rp2031
sS'L-urobilin'
p2032
g2
(g6
S'\xe6\xae%\xe4\x83\x9e\xf5?'
p2033
tp2034
Rp2035
sS'1-methylguanine'
p2036
g2
(g6
S'\x0e\xbe0\x99*\x18\xb5?'
p2037
tp2038
Rp2039
sS'raffinose'
p2040
g2
(g6
S',\xd4\x9a\xe6\x1d\xa7\x0e@'
p2041
tp2042
Rp2043
sS'5-methylthioadenosine_(MTA)'
p2044
g2
(g6
S'\xe3\xc7\x98\xbb\x96\x90\xe5?'
p2045
tp2046
Rp2047
sS'alpha-hydroxyisocaproate'
p2048
g2
(g6
S'>yX\xa85M\x07@'
p2049
tp2050
Rp2051
sS'N1-methyladenosine'
p2052
g2
(g6
S'\x83/L\xa6\nF\xd5?'
p2053
tp2054
Rp2055
sS'equol'
p2056
g2
(g6
S'\xee|?5^\xba\xd1?'
p2057
tp2058
Rp2059
sS'phenylpyruvate'
p2060
g2
(g6
S'\xcb\x10\xc7\xba\xb8\x8d\xf5?'
p2061
tp2062
Rp2063
sS'malonylcarnitine'
p2064
g2
(g6
S'\xf2\xb0Pk\x9aw\xf5?'
p2065
tp2066
Rp2067
sS'1-methylguanidine'
p2068
g2
(g6
S'@\x13a\xc3\xd3+\xdd?'
p2069
tp2070
Rp2071
sS'3-hydroxypalmitate'
p2072
g2
(g6
S'\xb3\xeas\xb5\x15\xfb\xcb?'
p2073
tp2074
Rp2075
sS'dihomo-linoleate_(20:2n6)'
p2076
g2
(g6
S'\x98L\x15\x8cJ\xea\xe0?'
p2077
tp2078
Rp2079
sS'dimethylarginine_(SDMA_+_ADMA)'
p2080
g2
(g6
S'\xd7\x12\xf2A\xcff\xed?'
p2081
tp2082
Rp2083
sS'N-acetyl-3-methylhistidine*'
p2084
g2
(g6
S'h\x91\xed|?5\xf1?'
p2085
tp2086
Rp2087
sS'lactobionate'
p2088
g2
(g6
S'\xc0\xec\x9e<,\xd4\xf8?'
p2089
tp2090
Rp2091
sS'docosapentaenoate_(n6_DPA;_22:5n6)'
p2092
g2
(g6
S's\xd7\x12\xf2A\xcf\xd2?'
p2093
tp2094
Rp2095
sS'palmitoyl-oleoyl-glycerol_(16:0/18:1)_[2]*'
p2096
g2
(g6
S'H\xbf}\x1d8g\xf3?'
p2097
tp2098
Rp2099
sS'2-hydroxystearate'
p2100
g2
(g6
S'\x80H\xbf}\x1d8\xe3?'
p2101
tp2102
Rp2103
sS'1-arachidonylglycerol_(20:4)'
p2104
g2
(g6
S'z6\xab>W[\xdd?'
p2105
tp2106
Rp2107
sS'1-stearoyl-2-oleoyl-GPE_(18:0/18:1)'
p2108
g2
(g6
S'\xea\x95\xb2\x0cq\xac\xeb?'
p2109
tp2110
Rp2111
sS'methyl_indole-3-acetate'
p2112
g2
(g6
S'J{\x83/L\xa6\xf5?'
p2113
tp2114
Rp2115
sS'gamma-glutamylglycine'
p2116
g2
(g6
S'\x12\xa5\xbd\xc1\x17&\xf0?'
p2117
tp2118
Rp2119
sS'gamma-glutamylisoleucine*'
p2120
g2
(g6
S'\x80H\xbf}\x1d\xb8\x0e@'
p2121
tp2122
Rp2123
sS'glycitein'
p2124
g2
(g6
S'\x02\xbc\x05\x12\x14?\xf7?'
p2125
tp2126
Rp2127
sS'N2,N6-diacetyllysine'
p2128
g2
(g6
S'4\x80\xb7@\x82\xe2\xeb?'
p2129
tp2130
Rp2131
sS'dihydrobiopterin'
p2132
g2
(g6
S'\x0f\x9c3\xa2\xb47\xf2?'
p2133
tp2134
Rp2135
sS'palmitoleoyl-arachidonoyl-glycerol_(16:1/20:4)_[2]*'
p2136
g2
(g6
S'\xf5\xdb\xd7\x81sF\xf2?'
p2137
tp2138
Rp2139
sS'mevalonolactone'
p2140
g2
(g6
S'\xaf\x94e\x88c]\xec?'
p2141
tp2142
Rp2143
sS'1-palmitoyl-2-oleoyl-GPE_(16:0/18:1)'
p2144
g2
(g6
S'9EGr\xf9O\x10@'
p2145
tp2146
Rp2147
sS'N-acetylglutamate'
p2148
g2
(g6
S'\x14?\xc6\xdc\xb5\x84\xf7?'
p2149
tp2150
Rp2151
sS'trans-4-hydroxyproline'
p2152
g2
(g6
S'\xd6\xc5m4\x80\xb7\xdc?'
p2153
tp2154
Rp2155
sS"2'-deoxyinosine"
p2156
g2
(g6
S'\x0f\x9c3\xa2\xb47\xe2?'
p2157
tp2158
Rp2159
sS'methylphosphate'
p2160
g2
(g6
S'\x88c]\xdcF\x03\xd4?'
p2161
tp2162
Rp2163
sS'linoleoyl-linoleoyl-glycerol_(18:2/18:2)_[2]*'
p2164
g2
(g6
S'\x10\xe9\xb7\xaf\x03\xe7\xf0?'
p2165
tp2166
Rp2167
sS'1-eicosapentaenoylglycerol_(20:5)*'
p2168
g2
(g6
S'D\xfa\xed\xeb\xc09\xd3?'
p2169
tp2170
Rp2171
sS'3-hydroxysebacate'
p2172
g2
(g6
S'#\xdb\xf9~j\xbc\xec?'
p2173
tp2174
Rp2175
sS'1-palmitoyl-GPG_(16:0)*'
p2176
g2
(g6
S'e\x19\xe2X\x177\x01@'
p2177
tp2178
Rp2179
sS'palmitoyl-docosahexaenoyl-glycerol_(16:0/22:6)_[1]*'
p2180
g2
(g6
S'\xe3\xa5\x9b\xc4 \xb0\xe8?'
p2181
tp2182
Rp2183
sS'picolinate'
p2184
g2
(g6
S'\xd8\x81sF\x94\xf6\xf4?'
p2185
tp2186
Rp2187
sS'succinate'
p2188
g2
(g6
S'\xab>W[\xb1?\x03@'
p2189
tp2190
Rp2191
sS'2-hydroxybutyrate/2-hydroxyisobutyrate'
p2192
g2
(g6
S'\xd6V\xec/\xbb\xa7\x00@'
p2193
tp2194
Rp2195
sS"2'-deoxyadenosine"
p2196
g2
(g6
S'q\x1b\r\xe0-\x90\xd4?'
p2197
tp2198
Rp2199
sS'alpha-hydroxyisovalerate'
p2200
g2
(g6
S'J\x0c\x02+\x87\x16\xfb?'
p2201
tp2202
Rp2203
sS'cytosine'
p2204
g2
(g6
S'\xfeC\xfa\xed\xeb\xc0\xd9?'
p2205
tp2206
Rp2207
sS'thioproline'
p2208
g2
(g6
S'\x901w-!\x1f\xe0?'
p2209
tp2210
Rp2211
sS'ascorbate_(Vitamin_C)'
p2212
g2
(g6
S'Dio\xf0\x85\xc9\xd0?'
p2213
tp2214
Rp2215
sS'N6-carboxymethyllysine'
p2216
g2
(g6
S'L7\x89A`\xe5\xf1?'
p2217
tp2218
Rp2219
sS'carotene_diol_(2)'
p2220
g2
(g6
S'z\xc7):\x92\xcb\xed?'
p2221
tp2222
Rp2223
sS'glycine'
p2224
g2
(g6
S'\xfc\xa9\xf1\xd2Mb\xd8?'
p2225
tp2226
Rp2227
sS'1-methylhistidine'
p2228
g2
(g6
S'\x901w-!\x1f\xb4?'
p2229
tp2230
Rp2231
sS'valine'
p2232
g2
(g6
S'\x01M\x84\rO\xaf\xe6?'
p2233
tp2234
Rp2235
sS'1-linoleoyl-GPE_(18:2)*'
p2236
g2
(g6
S'}\xae\xb6b\x7f\xd9\xf5?'
p2237
tp2238
Rp2239
sS'phenylalanylalanine'
p2240
g2
(g6
S"TR'\xa0\x89\xb0\xd1?"
p2241
tp2242
Rp2243
sS'myristoyl-linoleoyl-glycerol_(14:0/18:2)_[1]*'
p2244
g2
(g6
S'\xce\x88\xd2\xde\xe0\x0b\xd3?'
p2245
tp2246
Rp2247
sS'pyridoxate'
p2248
g2
(g6
S'\x9f\xab\xad\xd8_v\xf3?'
p2249
tp2250
Rp2251
sS'N1-methylinosine'
p2252
g2
(g6
S'5^\xbaI\x0c\x02\xe7?'
p2253
tp2254
Rp2255
sS'2-palmitoyl-GPC_(16:0)*'
p2256
g2
(g6
S'\x01\xde\x02\t\x8a\x1f\xd3?'
p2257
tp2258
Rp2259
sS'glycerophosphoinositol*'
p2260
g2
(g6
S'b\x10X9\xb4\xc8\xd6?'
p2261
tp2262
Rp2263
sS'taurocholate'
p2264
g2
(g6
S'\x89A`\xe5\xd0"\xf1?'
p2265
tp2266
Rp2267
sS'taurine'
p2268
g2
(g6
S'\x93\xa9\x82QI\x9d\xec?'
p2269
tp2270
Rp2271
sS'palmitoyl-linoleoyl-glycerol_(16:0/18:2)_[1]*'
p2272
g2
(g6
S'\xab\xcf\xd5V\xec/\xf2?'
p2273
tp2274
Rp2275
sS'naringenin_7-glucuronide'
p2276
g2
(g6
S'\x85\xebQ\xb8\x1e\x85\xf3?'
p2277
tp2278
Rp2279
sS'eicosapentaenoate_(EPA;_20:5n3)'
p2280
g2
(g6
S'\xf4\xfd\xd4x\xe9&\xe3?'
p2281
tp2282
Rp2283
sS'isoleucylglycine'
p2284
g2
(g6
S'\x85\xebQ\xb8\x1e\x85\xf1?'
p2285
tp2286
Rp2287
sS'stearoylcarnitine_(C18)'
p2288
g2
(g6
S'\xa0\x89\xb0\xe1\xe9\x95\xf5?'
p2289
tp2290
Rp2291
sS'maltol'
p2292
g2
(g6
S'L7\x89A`\xe5\xf1?'
p2293
tp2294
Rp2295
sS'taurocholenate_sulfate'
p2296
g2
(g6
S'\xc9v\xbe\x9f\x1a/\xf5?'
p2297
tp2298
Rp2299
sS'N-acetylphenylalanine'
p2300
g2
(g6
S'm\xe7\xfb\xa9\xf1\xd2\xd1?'
p2301
tp2302
Rp2303
sS'1,2-dipalmitoyl-GPE_(16:0/16:0)*'
p2304
g2
(g6
S'`\xe5\xd0"\xdb\xf9\xfb?'
p2305
tp2306
Rp2307
sS'sedoheptulose-7-phosphate'
p2308
g2
(g6
S'\xf5JY\x868\xd6\xe1?'
p2309
tp2310
Rp2311
sS'linoleoylcholine*'
p2312
g2
(g6
S'v\xe0\x9c\x11\xa5\xbd\xd9?'
p2313
tp2314
Rp2315
sS'1-stearoyl-2-linoleoyl-GPE_(18:0/18:2)*'
p2316
g2
(g6
S'I.\xff!\xfd\xf6\xf2?'
p2317
tp2318
Rp2319
sS'citrulline'
p2320
g2
(g6
S'\xaf%\xe4\x83\x9e\xcd\xde?'
p2321
tp2322
Rp2323
sS'1-(1-enyl-palmitoyl)-GPE_(P-16:0)*'
p2324
g2
(g6
S"0\xbb'\x0f\x0b\xb5\xda?"
p2325
tp2326
Rp2327
sS'1,1-kestotetraose'
p2328
g2
(g6
S'\xa5\xbd\xc1\x17&S\xed?'
p2329
tp2330
Rp2331
sS'oleanolate'
p2332
g2
(g6
S'Q\xda\x1b|a2\xd9?'
p2333
tp2334
Rp2335
sS'4-hydroxyhippurate'
p2336
g2
(g6
S'\xd7\x12\xf2A\xcff\xf3?'
p2337
tp2338
Rp2339
sS'5-methylcytosine'
p2340
g2
(g6
S'\xb3\x0cq\xac\x8b\xdb\xf5?'
p2341
tp2342
Rp2343
sS'clindamycin'
p2344
g2
(g6
S'V\x0e-\xb2\x9d\xef\xef?'
p2345
tp2346
Rp2347
sS'margaroylcarnitine*'
p2348
g2
(g6
S'\xe3\xc7\x98\xbb\x96\x90\xe7?'
p2349
tp2350
Rp2351
sS'undecanedioate'
p2352
g2
(g6
S'L7\x89A`\xe5\xec?'
p2353
tp2354
Rp2355
sS'betaine'
p2356
g2
(g6
S'}?5^\xbaI\xf0?'
p2357
tp2358
Rp2359
sS'valylleucine'
p2360
g2
(g6
S'\xa85\xcd;N\xd1\xe5?'
p2361
tp2362
Rp2363
sS'1-oleoyl-GPE_(18:1)'
p2364
g2
(g6
S'\xbak\t\xf9\xa0g\xf1?'
p2365
tp2366
Rp2367
sS'N-acetylvaline'
p2368
g2
(g6
S'e\x19\xe2X\x17\xb7\xef?'
p2369
tp2370
Rp2371
sS'palmitoyl_ethanolamide'
p2372
g2
(g6
S':\x92\xcb\x7fH\xbf\xef?'
p2373
tp2374
Rp2375
sS'12-dehydrocholate'
p2376
g2
(g6
S'\xc3\xf5(\\\x8f\xc2\xa5?'
p2377
tp2378
Rp2379
sS'syringic_acid'
p2380
g2
(g6
S'\xfe\xd4x\xe9&1\xe4?'
p2381
tp2382
Rp2383
sS'oleoylcholine'
p2384
g2
(g6
S'\x16\xfb\xcb\xee\xc9\xc3\xde?'
p2385
tp2386
Rp2387
sS'2-(4-hydroxyphenyl)propionate'
p2388
g2
(g6
S'\xa9\xa4N@\x13a\xdf?'
p2389
tp2390
Rp2391
sS'eicosanoylsphingosine_(d20:1)*'
p2392
g2
(g6
S'x\x9c\xa2#\xb9\xfc\xf2?'
p2393
tp2394
Rp2395
sS'N-acetylglucosamine_6-sulfate'
p2396
g2
(g6
S'`\xe5\xd0"\xdb\xf9\xc6?'
p2397
tp2398
Rp2399
sS'alanylleucine'
p2400
g2
(g6
S'\x1b\r\xe0-\x90\xa0\xe2?'
p2401
tp2402
Rp2403
sS'feruloylputrescine'
p2404
g2
(g6
S'\xfb\\m\xc5\xfe\xb2\xef?'
p2405
tp2406
Rp2407
sS'biliverdin'
p2408
g2
(g6
S'(~\x8c\xb9k\t\xfa?'
p2409
tp2410
Rp2411
sS'glycylisoleucine'
p2412
g2
(g6
S'\x80H\xbf}\x1d8\xeb?'
p2413
tp2414
Rp2415
sS'erythronate*'
p2416
g2
(g6
S'ffffff\xf0?'
p2417
tp2418
Rp2419
sS'glycerol_3-phosphate'
p2420
g2
(g6
S'Q\xda\x1b|a2\xe7?'
p2421
tp2422
Rp2423
sS'1-palmitoyl-GPI_(16:0)'
p2424
g2
(g6
S'=\x9bU\x9f\xab\xad\xe8?'
p2425
tp2426
Rp2427
sS'hyocholate'
p2428
g2
(g6
S'\x93\xa9\x82QI\x9d\xc0?'
p2429
tp2430
Rp2431
sS'1-(1-enyl-oleoyl)-2-oleoyl-GPE_(P-18:1/18:1)*'
p2432
g2
(g6
S'I\x9d\x80&\xc2\x86\xf1?'
p2433
tp2434
Rp2435
sS'isovalerate'
p2436
g2
(g6
S'!\x1f\xf4lV}\xd6?'
p2437
tp2438
Rp2439
sS'gamma-tocopherol/beta-tocopherol'
p2440
g2
(g6
S'}\xd0\xb3Y\xf5\xb9\xf1?'
p2441
tp2442
Rp2443
sS'1-palmitoyl-GPA_(16:0)'
p2444
g2
(g6
S'9\xb4\xc8v\xbe\x9f\xe6?'
p2445
tp2446
Rp2447
sS'7-ketodeoxycholate'
p2448
g2
(g6
S'=\n\xd7\xa3p=\xca?'
p2449
tp2450
Rp2451
sS'2-oxindole-3-acetate'
p2452
g2
(g6
S'\xdd$\x06\x81\x95C\xf3?'
p2453
tp2454
Rp2455
sS'glycerol'
p2456
g2
(g6
S'\xd8\xf0\xf4JY\x86\xe8?'
p2457
tp2458
Rp2459
sS'sulfate*'
p2460
g2
(g6
S'\xf4lV}\xae\xb6\xec?'
p2461
tp2462
Rp2463
sS'2,4,6-trihydroxybenzoate'
p2464
g2
(g6
S'j\xbct\x93\x18\x04\xf0?'
p2465
tp2466
Rp2467
sS'pantetheine'
p2468
g2
(g6
S'q\x1b\r\xe0-\x90\xc8?'
p2469
tp2470
Rp2471
sS'1-lignoceroyl-GPC_(24:0)'
p2472
g2
(g6
S'\xcb\x10\xc7\xba\xb8\x8d\xec?'
p2473
tp2474
Rp2475
sS'allantoic_acid'
p2476
g2
(g6
S'/\xdd$\x06\x81\x95\xe9?'
p2477
tp2478
Rp2479
sS'valerate'
p2480
g2
(g6
S'\xecQ\xb8\x1e\x85\xeb\xa1?'
p2481
tp2482
Rp2483
sS'nicotinic_acid_mononucleotide_(NaMN)'
p2484
g2
(g6
S'\xf6\x97\xdd\x93\x87\x85\xba?'
p2485
tp2486
Rp2487
sS'isocaproate'
p2488
g2
(g6
S'\x8euq\x1b\r\xe0\xcd?'
p2489
tp2490
Rp2491
sS'ferulate'
p2492
g2
(g6
S'X9\xb4\xc8v\xbe\xe5?'
p2493
tp2494
Rp2495
sS'beta-sitosterol'
p2496
g2
(g6
S'\xcd\xcc\xcc\xcc\xcc\xcc\xf1?'
p2497
tp2498
Rp2499
sS'apigenin'
p2500
g2
(g6
S'<\xbdR\x96!\x8e\xf4?'
p2501
tp2502
Rp2503
sS'diacylglycerol_(12:0/18:1,_14:0/16:1,_16:0/14:1)_[2]*'
p2504
g2
(g6
S'D\xfa\xed\xeb\xc09\xef?'
p2505
tp2506
Rp2507
sS'stearate_(18:0)'
p2508
g2
(g6
S'\xbak\t\xf9\xa0g\xe3?'
p2509
tp2510
Rp2511
sS'1-margaroylglycerol_(17:0)'
p2512
g2
(g6
S'\xa85\xcd;N\xd1\xdd?'
p2513
tp2514
Rp2515
sS'20-hydroxyecdysone'
p2516
g2
(g6
S'H\xe1z\x14\xaeG\xd5?'
p2517
tp2518
Rp2519
sS'3-phenylpropionate_(hydrocinnamate)'
p2520
g2
(g6
S'}\xd0\xb3Y\xf5\xb9\xba?'
p2521
tp2522
Rp2523
sS'coumaroylquinate_(4)'
p2524
g2
(g6
S'\xb6\x84|\xd0\xb3Y\xf9?'
p2525
tp2526
Rp2527
sS'homoserine'
p2528
g2
(g6
S'\x92\\\xfeC\xfa\xed\xe3?'
p2529
tp2530
Rp2531
sS"6'-sialyllactose"
p2532
g2
(g6
S'y\xe9&1\x08\xac\xec?'
p2533
tp2534
Rp2535
sS'17-methylstearate'
p2536
g2
(g6
S'\\ A\xf1c\xcc\xeb?'
p2537
tp2538
Rp2539
sS'N-acetylarginine'
p2540
g2
(g6
S'"\xfd\xf6u\xe0\x9c\xe9?'
p2541
tp2542
Rp2543
sS'D-urobilin'
p2544
g2
(g6
S'[\xd3\xbc\xe3\x14\x1d\xe3?'
p2545
tp2546
Rp2547
sS'lysylleucine'
p2548
g2
(g6
S'\xa6\x9b\xc4 \xb0r\xf0?'
p2549
tp2550
Rp2551
sS'hypotaurine'
p2552
g2
(g6
S'>yX\xa85\xcd\xd7?'
p2553
tp2554
Rp2555
sS'gamma-glutamylhistidine'
p2556
g2
(g6
S'\xcc]K\xc8\x07=\xef?'
p2557
tp2558
Rp2559
sS'sphingadienine*'
p2560
g2
(g6
S'\xa9\x13\xd0D\xd8\xf0\xe8?'
p2561
tp2562
Rp2563
sS'isoleucine'
p2564
g2
(g6
S'n\xa3\x01\xbc\x05\x12\xe8?'
p2565
tp2566
Rp2567
sS'erythritol'
p2568
g2
(g6
S'\x88\xf4\xdb\xd7\x81s\xf6?'
p2569
tp2570
Rp2571
sS'hypoxanthine'
p2572
g2
(g6
S's\xd7\x12\xf2A\xcf\xf0?'
p2573
tp2574
Rp2575
sS'ribulose/xylulose'
p2576
g2
(g6
S'\x91\x0fz6\xab>\xd7?'
p2577
tp2578
Rp2579
sS'pseudouridine'
p2580
g2
(g6
S'\xce\xaa\xcf\xd5V\xec\xcf?'
p2581
tp2582
Rp2583
sS'myristoylcarnitine_(C14)'
p2584
g2
(g6
S'8\xf8\xc2d\xaa`\xec?'
p2585
tp2586
Rp2587
sS'N-acetylputrescine'
p2588
g2
(g6
S'\xf4\xfd\xd4x\xe9\xa6\x10@'
p2589
tp2590
Rp2591
sS'octanoylcarnitine_(C8)'
p2592
g2
(g6
S'p_\x07\xce\x19Q\xc2?'
p2593
tp2594
Rp2595
sS'indolelactate'
p2596
g2
(g6
S'_\x07\xce\x19QZ\x00@'
p2597
tp2598
Rp2599
sS'sedoheptulose'
p2600
g2
(g6
S'\x97\xff\x90~\xfb:\xb0?'
p2601
tp2602
Rp2603
sS'tartronate_(hydroxymalonate)'
p2604
g2
(g6
S'\t\x1b\x9e^)\xcb\xdc?'
p2605
tp2606
Rp2607
sS'trimethylamine_N-oxide'
p2608
g2
(g6
S'\xea\x95\xb2\x0cq\xac\xe3?'
p2609
tp2610
Rp2611
sS'3-hydroxybutyrylcarnitine_(1)'
p2612
g2
(g6
S'+\xf6\x97\xdd\x93\x87\xe9?'
p2613
tp2614
Rp2615
sS'1-(3-aminopropyl)-2-pyrrolidone'
p2616
g2
(g6
S'\xd6\xc5m4\x80\xb7\xec?'
p2617
tp2618
Rp2619
sS'N-methylproline'
p2620
g2
(g6
S'\x9aw\x9c\xa2#\xb9\xd4?'
p2621
tp2622
Rp2623
sS'1-methylnicotinamide'
p2624
g2
(g6
S'^\xbaI\x0c\x02+\xdf?'
p2625
tp2626
Rp2627
sS'tyrosine'
p2628
g2
(g6
S'\x98\xdd\x93\x87\x85Z\xe3?'
p2629
tp2630
Rp2631
sS'stearoyl_ethanolamide'
p2632
g2
(g6
S'\xbak\t\xf9\xa0g\xe9?'
p2633
tp2634
Rp2635
sS'2-aminoadipate'
p2636
g2
(g6
S'\xfc\x18s\xd7\x12\xf2\xed?'
p2637
tp2638
Rp2639
sS'pipecolate'
p2640
g2
(g6
S'\xe3\xa5\x9b\xc4 \xb0\xec?'
p2641
tp2642
Rp2643
sS'galactosylglycerol*'
p2644
g2
(g6
S'\xda\xac\xfa\\m\xc5\xae?'
p2645
tp2646
Rp2647
sS'taurohyodeoxycholic_acid'
p2648
g2
(g6
S'~\x8c\xb9k\t\xf9\xf7?'
p2649
tp2650
Rp2651
sS'flavin_mononucleotide_(FMN)'
p2652
g2
(g6
S'\xa5N@\x13a\xc3\x93?'
p2653
tp2654
Rp2655
sS'2-palmitoylglycerol_(16:0)'
p2656
g2
(g6
S'a2U0*\xa9\xdb?'
p2657
tp2658
Rp2659
sS'gamma-glutamyltryptophan'
p2660
g2
(g6
S'\xc0[ A\xf1c\xec?'
p2661
tp2662
Rp2663
sS'N-acetyl-beta-alanine'
p2664
g2
(g6
S'\xf7\xe4a\xa1\xd64\xed?'
p2665
tp2666
Rp2667
sS'1-(1-enyl-palmitoyl)-2-linoleoyl-GPC_(P-16:0/18:2)*'
p2668
g2
(g6
S'\xc9v\xbe\x9f\x1a/\xf5?'
p2669
tp2670
Rp2671
sS'tryptophan'
p2672
g2
(g6
S'h"lxz\xa5\xe6?'
p2673
tp2674
Rp2675
sS'1-arachidonoyl-GPE_(20:4n6)*'
p2676
g2
(g6
S'gDio\xf0\x85\xf3?'
p2677
tp2678
Rp2679
sS'phenylalanine'
p2680
g2
(g6
S'_\x07\xce\x19Q\xda\xe7?'
p2681
tp2682
Rp2683
sS'3-hydroxybutyrate_(BHBA)'
p2684
g2
(g6
S'EGr\xf9\x0f\xe9\xd3?'
p2685
tp2686
Rp2687
sS'alpha-tocotrienol'
p2688
g2
(g6
S'h"lxz\xa5\xe8?'
p2689
tp2690
Rp2691
sS'urea'
p2692
g2
(g6
S'gDio\xf0\x85\xf0?'
p2693
tp2694
Rp2695
sS'quinolinate'
p2696
g2
(g6
S'U\xc1\xa8\xa4N@\xeb?'
p2697
tp2698
Rp2699
sS'malate'
p2700
g2
(g6
S'\xe7\x8c(\xed\r>\x0f@'
p2701
tp2702
Rp2703
sS'nicotinate_ribonucleoside'
p2704
g2
(g6
S'\x0c\x02+\x87\x16\xd9\xe0?'
p2705
tp2706
Rp2707
sS'N-formylanthranilic_acid'
p2708
g2
(g6
S'\x06\x12\x14?\xc6\xdc\xef?'
p2709
tp2710
Rp2711
sS'adenosine'
p2712
g2
(g6
S' \xd2o_\x07\xce\xe7?'
p2713
tp2714
Rp2715
sS'biochanin_A'
p2716
g2
(g6
S'1\x08\xac\x1cZd\xf0?'
p2717
tp2718
Rp2719
sS'trans-urocanate'
p2720
g2
(g6
S'B>\xe8\xd9\xac\xfa\xf4?'
p2721
tp2722
Rp2723
sS'2-hydroxyadipate'
p2724
g2
(g6
S'\xf9\xa0g\xb3\xeas\xef?'
p2725
tp2726
Rp2727
sS'O-sulfo-L-tyrosine'
p2728
g2
(g6
S'\xc2\x17&S\x05\xa3\xe4?'
p2729
tp2730
Rp2731
sS'caffeic_acid_sulfate'
p2732
g2
(g6
S'z\xa5,C\x1c\xeb\xf3?'
p2733
tp2734
Rp2735
sS'sarcosine'
p2736
g2
(g6
S'=\n\xd7\xa3p=\xba?'
p2737
tp2738
Rp2739
sS'docosadienoate_(22:2n6)'
p2740
g2
(g6
S'\xdb\x8a\xfde\xf7\xe4\xe1?'
p2741
tp2742
Rp2743
sS'4-hydroxybenzoate'
p2744
g2
(g6
S"\xd6V\xec/\xbb'\xe5?"
p2745
tp2746
Rp2747
sS'ribitol'
p2748
g2
(g6
S'\x00o\x81\x04\xc5\x8f\xf6?'
p2749
tp2750
Rp2751
sS'galactonate'
p2752
g2
(g6
S'\x1e\xa7\xe8H.\xff\xd5?'
p2753
tp2754
Rp2755
sS'pimelate_(heptanedioate)'
p2756
g2
(g6
S'%u\x02\x9a\x08\x1b\xc6?'
p2757
tp2758
Rp2759
sS'pantothenate'
p2760
g2
(g6
S'\xd3\xbc\xe3\x14\x1d\xc9\x06@'
p2761
tp2762
Rp2763
sS'creatinine'
p2764
g2
(g6
S'\xbdR\x96!\x8eu\xf0?'
p2765
tp2766
Rp2767
sS'1-(1-enyl-oleoyl)-GPE_(P-18:1)*'
p2768
g2
(g6
S'@\xa4\xdf\xbe\x0e\x9c\xdb?'
p2769
tp2770
Rp2771
sS'catechol_sulfate'
p2772
g2
(g6
S'\x10X9\xb4\xc8v\xce?'
p2773
tp2774
Rp2775
sS'bilirubin_(Z,Z)'
p2776
g2
(g6
S'EGr\xf9\x0f\xe9\xf3?'
p2777
tp2778
Rp2779
sS'1-oleoylglycerol_(18:1)'
p2780
g2
(g6
S'\xa2\xb47\xf8\xc2d\xe6?'
p2781
tp2782
Rp2783
sS'1,2-dilinoleoyl-GPC_(18:2/18:2)'
p2784
g2
(g6
S'$\xb9\xfc\x87\xf4\xdb\xe3?'
p2785
tp2786
Rp2787
sS'daidzein'
p2788
g2
(g6
S'\xe1z\x14\xaeG\xe1\xf9?'
p2789
tp2790
Rp2791
sS'adrenate_(22:4n6)'
p2792
g2
(g6
S'\x9f\xab\xad\xd8_v\xd3?'
p2793
tp2794
Rp2795
sS'glycerophosphorylcholine_(GPC)'
p2796
g2
(g6
S'L\xa6\nF%u\xc2?'
p2797
tp2798
Rp2799
sS'glutarate_(pentanedioate)'
p2800
g2
(g6
S'\x88c]\xdcF\x03\xf0?'
p2801
tp2802
Rp2803
sS'leucine'
p2804
g2
(g6
S'\x05\xa3\x92:\x01M\xea?'
p2805
tp2806
Rp2807
sS'gamma-glutamyl-2-aminobutyrate'
p2808
g2
(g6
S'\xc9v\xbe\x9f\x1a/\xc5?'
p2809
tp2810
Rp2811
sS'cystine'
p2812
g2
(g6
S'\xa85\xcd;N\xd1\xdd?'
p2813
tp2814
Rp2815
sS'gamma-aminobutyrate_(GABA)'
p2816
g2
(g6
S'D\x8bl\xe7\xfb\xa9\xf3?'
p2817
tp2818
Rp2819
sS'N-delta-acetylornithine'
p2820
g2
(g6
S'\xe0-\x90\xa0\xf81\xde?'
p2821
tp2822
Rp2823
sS'arabitol/xylitol'
p2824
g2
(g6
S'\xd5\th"lx\xba?'
p2825
tp2826
Rp2827
sS'azelate_(nonanedioate)'
p2828
g2
(g6
S'\x16\xfb\xcb\xee\xc9\xc3\xf9?'
p2829
tp2830
Rp2831
sS'arginine'
p2832
g2
(g6
S'\xb5\xa6y\xc7):\xe4?'
p2833
tp2834
Rp2835
sS'N2-acetyllysine'
p2836
g2
(g6
S'p_\x07\xce\x19Q\xe8?'
p2837
tp2838
Rp2839
sS'1-palmitoyl-2-stearoyl-GPC_(16:0/18:0)'
p2840
g2
(g6
S"0\xbb'\x0f\x0b\xb5\xf0?"
p2841
tp2842
Rp2843
sS'anserine'
p2844
g2
(g6
S'\x0e-\xb2\x9d\xef\xa7\xec?'
p2845
tp2846
Rp2847
sS'1-methyladenine'
p2848
g2
(g6
S'HP\xfc\x18s\xd7\xf1?'
p2849
tp2850
Rp2851
sS'fructose'
p2852
g2
(g6
S'~\x1d8gDi\x00@'
p2853
tp2854
Rp2855
sS'alpha-ketoglutarate'
p2856
g2
(g6
S'\xe3\xc7\x98\xbb\x96\x90\x03@'
p2857
tp2858
Rp2859
sS'arabinose'
p2860
g2
(g6
S'V}\xae\xb6b\x7f\xa9?'
p2861
tp2862
Rp2863
sS'sphingosine'
p2864
g2
(g6
S'\xf6(\\\x8f\xc2\xf5\xec?'
p2865
tp2866
Rp2867
sS'leucylglycine'
p2868
g2
(g6
S'\x17\xb7\xd1\x00\xde\x02\xef?'
p2869
tp2870
Rp2871
sS'linoleoyl-docosahexaenoyl-glycerol_(18:2/22:6)_[2]*'
p2872
g2
(g6
S'^K\xc8\x07=\x9b\xe3?'
p2873
tp2874
Rp2875
sS'N1-methylguanosine'
p2876
g2
(g6
S'EGr\xf9\x0f\xe9\xa7?'
p2877
tp2878
Rp2879
sS'phenyllactate_(PLA)'
p2880
g2
(g6
S'\x02\x9a\x08\x1b\x9e^\x01@'
p2881
tp2882
Rp2883
sS"adenosine_5'-monophosphate_(AMP)"
p2884
g2
(g6
S'\xca2\xc4\xb1.n\xc3?'
p2885
tp2886
Rp2887
sS'N-acetylglutamine'
p2888
g2
(g6
S'\xa85\xcd;N\xd1\xf4?'
p2889
tp2890
Rp2891
sS'tartarate'
p2892
g2
(g6
S'Qk\x9aw\x9c\xa2\xdb?'
p2893
tp2894
Rp2895
sS'1-palmitoyl-2-palmitoleoyl-GPC_(16:0/16:1)*'
p2896
g2
(g6
S'\xe1\x0b\x93\xa9\x82Q\xe7?'
p2897
tp2898
Rp2899
sS'glycerophosphoethanolamine'
p2900
g2
(g6
S'\xf91\xe6\xae%\xe4\xe7?'
p2901
tp2902
Rp2903
sS'daidzein_sulfate_(1)'
p2904
g2
(g6
S'\x83QI\x9d\x80&\xf5?'
p2905
tp2906
Rp2907
sS'citrate'
p2908
g2
(g6
S'\xce\x19Q\xda\x1b|\xef?'
p2909
tp2910
Rp2911
sS'enterolactone'
p2912
g2
(g6
S'\xfe\xd4x\xe9&1\xe2?'
p2913
tp2914
Rp2915
s.