ccopy_reg
_reconstructor
p0
(cgpr
Gpr
p1
c__builtin__
object
p2
Ntp3
Rp4
(dp5
S'rules'
p6
(dp7
S'R_rxn10262_c'
p8
NsS'R_rxn02795_c'
p9
NsS'R_rxn05459_c'
p10
NsS'R_rxn00405_c'
p11
NsS'R_rxn05872_c'
p12
NsS'R_rxn00182_c'
p13
NsS'R_rxn03164_c'
p14
NsS'R_rxn01547_c'
p15
NsS'R_rxn05551_c'
p16
NsS'R_rxn09992_c'
p17
NsS'R_EX_cpd00307_e'
p18
NsS'R_rxn01974_c'
p19
NsS'R_rxn05232_c'
p20
NsS'R_rxn03141_c'
p21
NsS'R_rxn05384_c'
p22
NsS'R_rxn00568_c'
p23
NsS'R_rxn01459_c'
p24
NsS'R_rxn14152_c'
p25
NsS'R_EX_cpd00080_e'
p26
NsS'R_rxn05127_c'
p27
NsS'R_EX_cpd00309_e'
p28
NsS'R_rxn05919_c'
p29
NsS'R_rxn05313_c'
p30
NsS'R_rxn05165_c'
p31
NsS'R_rxn10283_c'
p32
NsS'R_rxn00748_c'
p33
NsS'R_rxn07879_c'
p34
NsS'R_rxn00459_c'
p35
NsS'R_rxn01479_c'
p36
NsS'R_rxn03421_c'
p37
NsS'R_rxn00214_c'
p38
NsS'R_rxn02262_c'
p39
NsS'R_rxn10285_c'
p40
NsS'R_rxn01644_c'
p41
NsS'R_rxn00549_c'
p42
NsS'R_rxn02131_c'
p43
NsS'R_teichoicacid_rxn'
p44
NsS'R_rxn00912_c'
p45
NsS'R_rxn00527_c'
p46
NsS'R_rxn02230_c'
p47
NsS'R_rxn00001_c'
p48
NsS'R_rxn05165_2_c'
p49
NsS'R_rxn08811_c'
p50
NsS'R_rxn02264_c'
p51
NsS'R_rxn01133_c'
p52
NsS'R_rxn00506_c'
p53
NsS'R_rxn00910_c'
p54
NsS'R_rxn00629_c'
p55
NsS'R_EX_cpd00129_e'
p56
NsS'R_rxn18579_c'
p57
NsS'R_rxn03762_c'
p58
NsS'R_rxn01648_c'
p59
NsS'R_rxn00048_c'
p60
NsS'R_rxn00541_c'
p61
NsS'R_rxn02988_c'
p62
NsS'R_rxn09429_c'
p63
NsS'R_rxn11838_c'
p64
NsS'R_rxn02167_c'
p65
NsS'R_rxn00146_c'
p66
NsS'R_rxn10258_c'
p67
NsS'R_rxn03095_c'
p68
NsS'R_rxn02804_c'
p69
NsS'R_rxn02687_c'
p70
NsS'R_rxn01014_c'
p71
NsS'R_rxn00608_c'
p72
NsS'R_rxn07841_c'
p73
NsS'R_rxn09310_c'
p74
NsS'R_rxn00355_c'
p75
NsS'R_rxn00898_c'
p76
NsS'R_rxn02201_c'
p77
NsS'R_rxn03856_c'
p78
NsS'R_R06782_c'
p79
NsS'R_R01174_3_c'
p80
NsS'R_rxn01322_c'
p81
NsS'R_rxn03642_c'
p82
NsS'R_rxn05252_c'
p83
NsS'R_rxn06377_c'
p84
NsS'R_rxn00781_c'
p85
NsS'R_rxn04384_c'
p86
NsS'R_rxn14090_c'
p87
NsS'R_EX_cpd00076_e'
p88
NsS'R_rxn12191_c'
p89
NsS'R_rxn05350_c'
p90
NsS'R_rxn02228_c'
p91
NsS'R_rxn01895_c'
p92
NsS'R_rxn00783_c'
p93
NsS'R_EX_cpd00208_e'
p94
NsS'R_rxn00704_c'
p95
NsS'R_rxn00002_c'
p96
NsS'R_rxn01301_c'
p97
NsS'R_ID001_c'
p98
NsS'R_rxn04712_c'
p99
NsS'R_rxn03638_c'
p100
NsS'R_rxn05527_c'
p101
NsS'R_rxn01530_c'
p102
NsS'R_rxn01870_c'
p103
NsS'R_EX_cpd00107_e'
p104
NsS'R_rxn08309_c'
p105
NsS'R_rxn05602_c'
p106
NsS'R_rxn05250_c'
p107
NsS'R_rxn00787_c'
p108
NsS'R_rxn05358_c'
p109
NsS'R_rxn07466_c'
p110
NsS'R_rxn00422_c'
p111
NsS'R_rxn01575_c'
p112
NsS'R_rxn09296_c'
p113
NsS'R_rxn11610_c'
p114
NsS'R_rxn01917_c'
p115
NsS'R_rxn10264_c'
p116
NsS'R_rxn00710_c'
p117
NsS'R_rxn01145_c'
p118
NsS'R_rxn05236_c'
p119
NsS'R_rxn00669_c'
p120
NsS'R_rxn00907_c'
p121
NsS'R_rxn00785_c'
p122
NsS'R_rxn01268_c'
p123
NsS'R_EX_cpd00242_e'
p124
NsS'R_rxn00741_c'
p125
NsS'R_rxn05234_c'
p126
NsS'R_rxn00543_c'
p127
NsS'R_rxn00186_c'
p128
NsS'R_EX_cpd00430_e'
p129
NsS'R_rxn00649_c'
p130
NsS'R_ID006_c'
p131
NsS'R_rxn02489_c'
p132
NsS'R_rxn05644_c'
p133
NsS'R_rxn05183_c'
p134
NsS'R_rxn02548_c'
p135
NsS'R_rxn03147_c'
p136
NsS'R_rxn01492_c'
p137
NsS'R_R11462_c'
p138
NsS'R_EX_cpd00751_e'
p139
NsS'R_rxn08307_c'
p140
NsS'R_rxn02791_c'
p141
NsS'R_rxn10191_c'
p142
NsS'R_rxn05594_c'
p143
NsS'R_rxn05202_c'
p144
NsS'R_rxn08647_c'
p145
NsS'R_rxn05663_c'
p146
NsS'R_rxn00988_c'
p147
NsS'R_rxn05371_c'
p148
NsS'R_rxn01100_c'
p149
NsS'R_rxn02937_c'
p150
NsS'R_EX_cpd00053_e'
p151
NsS'R_rxn03958_c'
p152
NsS'R_rxn01791_c'
p153
NsS'R_rxn10175_c'
p154
NsS'R_rxn01200_c'
p155
NsS'R_rxn01102_c'
p156
NsS'R_rxn01201_c'
p157
NsS'R_rxn03665_c'
p158
NsS'R_rxn09031_c'
p159
NsS'R_rxn11834_c'
p160
NsS'R_rxn00328_c'
p161
NsS'R_rxn05425_c'
p162
NsS'R_EX_cpd03343_e'
p163
NsS'R_rxn05457_c'
p164
NsS'R_rxn04779_c'
p165
NsS'R_rxn04996_c'
p166
NsS'R_rxn03667_c'
p167
NsS'R_rxn05555_c'
p168
NsS'R_rxn02185_c'
p169
NsS'R_rxn06076_c'
p170
NsS'R_rxn00124_c'
p171
NsS'R_EX_cpd00051_e'
p172
NsS'R_rxn01858_c'
p173
NsS'R_rxn00838_c'
p174
NsS'R_EX_cpd00082_e'
p175
NsS'R_rxn02008_c'
p176
NsS'R_rxn03185_c'
p177
NsS'R_rxn10287_c'
p178
NsS'R_rxn12405_c'
p179
NsS'R_rxn05293_c'
p180
NsS'R_R01103_c'
p181
NsS'R_rxn06752_c'
p182
NsS'R_rxn06078_c'
p183
NsS'R_rxn05647_c'
p184
NsS'R_rxn04794_c'
p185
NsS'R_rxn05413_c'
p186
NsS'R_rxn10322_c'
p187
NsS'R_rxn08812_c'
p188
NsS'R_rxn03910_c'
p189
NsS'R_rxn00337_c'
p190
NsS'R_rxn09271_c'
p191
NsS'R_rxn09177_c'
p192
NsS'R_rxn00858_c'
p193
NsS'R_rxn01669_c'
p194
NsS'R_rxn05645_c'
p195
NsS'R_rxn07734_c'
p196
NsS'R_EX_cpd01080_e'
p197
NsS'R_rxn05454_c'
p198
NsS'R_rxn02168_c'
p199
NsS'R_rxn01265_c'
p200
NsS'R_rxn11676_c'
p201
NsS'R_rxn01799_c'
p202
NsS'R_rxn02522_c'
p203
NsS'R_rxn03194_c'
p204
NsS'R_rxn10052_c'
p205
NsS'R_rxn00708_c'
p206
NsS'R_rxn05160_c'
p207
NsS'R_rxn05164_c'
p208
NsS'R_rxn06750_c'
p209
NsS'R_rxn08352_c'
p210
NsS'R_rxn02762_c'
p211
NsS'R_rxn00612_c'
p212
NsS'R_rxn05126_c'
p213
NsS'R_rxn03891_c'
p214
NsS'R_rxn03873_c'
p215
NsS'R_rxn01643_c'
p216
NsS'R_R03018_c'
p217
NsS'R_rxn04413_c'
p218
NsS'R_EX_cpd00133_e'
p219
NsS'R_rxn05617_c'
p220
NsS'R_rxn09953_c'
p221
NsS'R_rxn00519_c'
p222
NsS'R_rxn01641_c'
p223
NsS'R_rxn00181_c'
p224
NsS'R_rxn03915_c'
p225
NsS'R_EX_cpd00104_e'
p226
NsS'R_rxn08669_c'
p227
NsS'R_ID007_c'
p228
NsS'R_rxn02737_c'
p229
NsS'R_rxn01513_c'
p230
NsS'R_rxn05379_c'
p231
NsS'R_rxn01607_c'
p232
NsS'R_rxn00440_c'
p233
NsS'R_rxn00789_c'
p234
NsS'R_rxn00085_c'
p235
NsS'R_rxn10282_c'
p236
NsS'R_rxn01157_c'
p237
NsS'R_rxn00747_c'
p238
NsS'R_EX_cpd01171_e'
p239
NsS'R_rxn10826_c'
p240
NsS'R_rxn01211_c'
p241
NsS'R_ID003_c'
p242
NsS'R_rxn07622_c'
p243
NsS'R_rxn08297_c'
p244
NsS'R_EX_cpd00489_e'
p245
NsS'R_rxn01241_c'
p246
NsS'R_rxn10280_c'
p247
NsS'R_rxn01647_c'
p248
NsS'R_rxn01208_c'
p249
NsS'R_rxn03921_c'
p250
NsS'R_ID005_c'
p251
NsS'R_rxn01603_c'
p252
NsS'R_rxn00109_c'
p253
NsS'R_rxn01069_c'
p254
NsS'R_rxn07842_c'
p255
NsS'R_rxn10114_c'
p256
NsS'R_rxn04031_c'
p257
NsS'R_rxn02200_c'
p258
NsS'R_rxn05298_c'
p259
NsS'R_rxn08805_c'
p260
NsS'R_rxn02160_c'
p261
NsS'R_rxn09450_c'
p262
NsS'R_rxn00874_c'
p263
NsS'R_rxn08884_c'
p264
NsS'R_EX_cpd05161_e'
p265
NsS'R_rxn08800_c'
p266
NsS'R_rxn06673_c'
p267
NsS'R_rxn03243_c'
p268
NsS'R_rxn06488_c'
p269
NsS'R_rxn05744_c'
p270
NsS'R_rxn01484_c'
p271
NsS'R_rxn01626_c'
p272
NsS'R_rxn07885_c'
p273
NsS'R_rxn08841_c'
p274
NsS'R_EX_cpd00156_e'
p275
NsS'R_rxn08802_c'
p276
NsS'R_rxn01486_c'
p277
NsS'R_rxn01620_c'
p278
NsS'R_EX_cpd00033_e'
p279
NsS'R_rxn10281_c'
p280
NsS'R_rxn00490_c'
p281
NsS'R_rxn00020_c'
p282
NsS'R_peptidoglycan_rxn'
p283
NsS'R_EX_cpd00158_e'
p284
NsS'R_rxn13713_c'
p285
NsS'R_rxn01023_c'
p286
NsS'R_rxn03852_c'
p287
NsS'R_rxn01871_c'
p288
NsS'R_rxn03641_c'
p289
NsS'R_rxn01300_c'
p290
NsS'R_rxn00340_c'
p291
NsS'R_rxn08040_c'
p292
NsS'R_rxn30338_c'
p293
NsS'R_rxn10036_c'
p294
NsS'R_rxn00707_c'
p295
NsS'R_rxn01452_c'
p296
NsS'R_rxn03084_c'
p297
NsS'R_rxn09119_c'
p298
NsS'R_rxn08843_c'
p299
NsS'R_rxn10277_c'
p300
NsS'R_rxn02897_c'
p301
NsS'R_rxn08847_c'
p302
NsS'R_rxn02418_c'
p303
NsS'R_rxn05486_c'
p304
NsS'R_rxn05237_c'
p305
NsS'R_rxn00305_c'
p306
NsS'R_EX_cpd03170_e'
p307
NsS'R_rxn05359_c'
p308
NsS'R_EX_cpd00232_e'
p309
NsS'R_rxn01304_c'
p310
NsS'R_rxn01127_c'
p311
NsS'R_rxn05235_c'
p312
NsS'R_rxn09562_c'
p313
NsS'R_rxn02475_c'
p314
NsS'R_rxn08686_c'
p315
NsS'R_rxn01269_c'
p316
NsS'R_rxn02811_c'
p317
NsS'R_rxn09996_c'
p318
NsS'R_rxn09111_c'
p319
NsS'R_ID008_c'
p320
NsS'R_rxn10256_c'
p321
NsS'R_rxn01977_c'
p322
NsS'R_rxn00029_c'
p323
NsS'R_rxn09448_c'
p324
NsS'R_rxn02796_c'
p325
NsS'R_rxn00187_c'
p326
NsS'R_rxn03167_c'
p327
NsS'R_rxn14287_c'
p328
NsS'R_rxn04068_c'
p329
NsS'R_rxn00364_c'
p330
NsS'R_EX_cpd00797_e'
p331
NsS'R_rxn11336_c'
p332
NsS'R_rxn05231_c'
p333
NsS'R_rxn00303_c'
p334
NsS'R_rxn05227_c'
p335
NsS'R_rxn04723_c'
p336
NsS'R_rxn08298_c'
p337
NsS'R_rxn02484_c'
p338
NsS'R_rxn08813_c'
p339
NsS'R_rxn05151_c'
p340
NsS'R_rxn00151_c'
p341
NsS'R_rxn07721_c'
p342
NsS'R_rxn01537_c'
p343
NsS'R_rxn05452_c'
p344
NsS'R_rxn03248_c'
p345
NsS'R_EX_cpd00179_e'
p346
NsS'R_rxn09108_c'
p347
NsS'R_rxn01649_c'
p348
NsS'R_rxn01610_c'
p349
NsS'R_rxn00678_c'
p350
NsS'R_rxn12147_c'
p351
NsS'R_rxn03080_c'
p352
NsS'R_rxn02639_c'
p353
NsS'R_rxn05344_c'
p354
NsS'R_rxn12619_c'
p355
NsS'R_EX_cpd00007_e'
p356
NsS'R_rxn01366_c'
p357
NsS'R_rxn00297_c'
p358
NsS'R_rxn08823_c'
p359
NsS'R_rxn12566_c'
p360
NsS'R_rxn01859_c'
p361
NsS'R_rxn08783_c'
p362
NsS'R_rxn08025_c'
p363
NsS'R_rxn00157_c'
p364
NsS'R_EX_cpd00516_e'
p365
NsS'R_rxn00832_c'
p366
NsS'R_rxn03892_c'
p367
NsS'R_rxn01074_c'
p368
NsS'R_rxn02182_c'
p369
NsS'R_rxn03108_c'
p370
NsS'R_rxn08821_c'
p371
NsS'R_rxn04727_c'
p372
NsS'R_rxn02895_c'
p373
NsS'R_rxn01329_c'
p374
NsS'R_rxn00553_c'
p375
NsS'R_rxn02819_c'
p376
NsS'R_EX_cpd00119_e'
p377
NsS'R_rxn27328_c'
p378
NsS'R_rxn21134_c'
p379
NsS'R_rxn01292_c'
p380
NsS'R_EX_cpd00054_e'
p381
NsS'R_rxn08806_c'
p382
NsS'R_rxn13139_c'
p383
NsS'R_rxn01362_c'
p384
NsS'R_rxn06075_c'
p385
NsS'R_rxn10840_c'
p386
NsS'R_rxn00242_c'
p387
NsS'R_rxn00555_c'
p388
NsS'R_rxn09113_c'
p389
NsS'R_rxn02009_c'
p390
NsS'R_rxn12676_c'
p391
NsS'R_rxn00905_c'
p392
NsS'R_rxn02380_c'
p393
NsS'R_rxn00260_c'
p394
NsS'R_rxn00022_c'
p395
NsS'R_rxn04454_c'
p396
NsS'R_rxn01539_c'
p397
NsS'R_rxn05453_c'
p398
NsS'R_rxn09124_c'
p399
NsS'R_rxn02405_c'
p400
NsS'R_rxn04744_c'
p401
NsS'R_rxn01225_c'
p402
NsS'R_rxn01851_c'
p403
NsS'R_EX_cpd00138_e'
p404
NsS'R_rxn02005_c'
p405
NsS'R_rxn00283_c'
p406
NsS'R_rxn05421_c'
p407
NsS'R_rxn30210_c'
p408
NsS'R_rxn01119_c'
p409
NsS'R_rxn02853_c'
p410
NsS'R_rxn10278_c'
p411
NsS'R_rxn03446_c'
p412
NsS'R_rxn00863_c'
p413
NsS'R_rxn08848_c'
p414
NsS'R_rxn01044_c'
p415
NsS'R_rxn00239_c'
p416
NsS'R_rxn05404_c'
p417
NsS'R_rxn08815_c'
p418
NsS'R_rxn10279_c'
p419
NsS'R_rxn03933_c'
p420
NsS'R_rxn05669_c'
p421
NsS'R_rxn00611_c'
p422
NsS'R_rxn00692_c'
p423
NsS'R_EX_cpd00035_e'
p424
NsS'R_rxn00550_c'
p425
NsS'R_rxn00474_c'
p426
NsS'R_rxn08295_c'
p427
NsS'R_rxn02975_c'
p428
NsS'R_rxn00641_c'
p429
NsS'R_rxn00363_c'
p430
NsS'R_rxn08615_c'
p431
NsS'R_rxn12239_c'
p432
NsS'R_rxn10273_c'
p433
NsS'R_rxn00493_c'
p434
NsS'R_R01174_2_c'
p435
NsS'R_rxn07261_c'
p436
NsS'R_rxn14301_c'
p437
NsS'R_rxn06205_c'
p438
NsS'R_rxn05291_c'
p439
NsS'R_rxn00225_c'
p440
NsS'R_rxn00314_c'
p441
NsS'R_rxn10275_c'
p442
NsS'R_rxn01600_c'
p443
NsS'R_rxn10131_c'
p444
NsS'R_rxn10271_c'
p445
NsS'R_rxn09126_c'
p446
NsS'R_rxn02473_c'
p447
NsS'R_rxn08296_c'
p448
NsS'R_rxn00470_c'
p449
NsS'R_rxn00929_c'
p450
NsS'R_rxn01021_c'
p451
NsS'R_rxn01602_c'
p452
NsS'R_rxn04937_c'
p453
NsS'R_rxn01068_c'
p454
NsS'R_rxn03618_c'
p455
NsS'R_rxn00653_c'
p456
NsS'R_rxn02212_c'
p457
NsS'R_rxn10254_c'
p458
NsS'R_rxn00322_c'
p459
NsS'R_rxn04954_c'
p460
NsS'R_rxn08796_c'
p461
NsS'R_rxn08521_c'
p462
NsS'R_rxn08310_c'
p463
NsS'R_rxn00558_c'
p464
NsS'R_EX_cpd00011_e'
p465
NsS'R_rxn09142_c'
p466
NsS'R_rxn03537_c'
p467
NsS'R_EX_cpd00013_e'
p468
NsS'R_rxn06672_c'
p469
NsS'R_rxn10862_c'
p470
NsS'R_rxn01368_c'
p471
NsS'R_rxn02835_c'
p472
NsS'R_rxn00615_c'
p473
NsS'R_rxn06759_c'
p474
NsS'R_rxn05243_c'
p475
NsS'R_rxn00908_c'
p476
NsS'R_rxn00772_c'
p477
NsS'R_rxn05567_c'
p478
NsS'R_rxn01114_c'
p479
NsS'R_rxn00676_c'
p480
NsS'R_ENOG4108HXH_c'
p481
NsS'R_rxn02789_c'
p482
NsS'R_rxn02314_c'
p483
NsS'R_rxn00139_c'
p484
NsS'R_rxn05170_c'
p485
NsS'R_rxn05219_c'
p486
NsS'R_rxn13140_c'
p487
NsS'R_rxn01740_c'
p488
NsS'R_rxn03062_c'
p489
NsS'R_rxn01236_c'
p490
NsS'R_rxn02504_c'
p491
NsS'R_rxn01807_c'
p492
NsS'R_rxn01404_c'
p493
NsS'R_rxn01548_c'
p494
NsS'R_ID002_c'
p495
NsS'R_rxn00579_c'
p496
NsS'R_rxn00119_c'
p497
NsS'R_rxn01345_c'
p498
NsS'R_rxn00530_c'
p499
NsS'R_rxn02115_c'
p500
NsS'R_rxn05496_c'
p501
NsS'R_rxn00223_c'
p502
NsS'R_rxn08131_c'
p503
NsS'R_rxn00947_c'
p504
NsS'R_rxn08840_c'
p505
NsS'R_rxn01465_c'
p506
NsS'R_rxn10316_c'
p507
NsS'R_rxn02476_c'
p508
NsS'R_rxn05247_c'
p509
NsS'R_rxn02107_c'
p510
NsS'R_rxn01132_c'
p511
NsS'R_rxn05902_c'
p512
NsS'R_rxn01682_c'
p513
NsS'R_rxn03366_c'
p514
NsS'R_rxn14293_c'
p515
NsS'R_rxn03463_c'
p516
NsS'R_rxn00302_c'
p517
NsS'R_rxn05409_c'
p518
NsS'R_rxn02474_c'
p519
NsS'R_rxn07609_c'
p520
NsS'R_EX_cpd00794_e'
p521
NsS'R_rxn08312_c'
p522
NsS'R_rxn08844_c'
p523
NsS'R_rxn03848_c'
p524
NsS'R_rxn02680_c'
p525
NsS'R_rxn00532_c'
p526
NsS'R_EX_cpd00041_e'
p527
NsS'R_rxn01461_c'
p528
NsS'R_rxn00300_c'
p529
NsS'R_rxn16586_c'
p530
NsS'R_rxn00690_c'
p531
NsS'R_rxn00134_c'
p532
NsS'R_rxn09112_c'
p533
NsS'R_rxn08294_c'
p534
NsS'R_rxn00778_c'
p535
NsS'R_rxn03467_c'
p536
NsS'R_rxn05145_c'
p537
NsS'R_rxn05249_c'
p538
NsS'R_rxn10323_c'
p539
NsS'R_rxn00607_c'
p540
NsS'R_rxn00689_c'
p541
NsS'R_rxn09110_c'
p542
NsS'R_rxn10144_c'
p543
NsS'R_rxn00763_c'
p544
NsS'R_rxn00926_c'
p545
NsS'R_rxn00790_c'
p546
NsS'R_EX_cpd00393_e'
p547
NsS'R_rxn01219_c'
p548
NsS'R_rxn06493_c'
p549
NsS'R_rxn02177_c'
p550
NsS'R_rxn05400_c'
p551
NsS'R_rxn01280_c'
p552
NsS'R_rxn08849_c'
p553
NsS'R_rxn01138_c'
p554
NsS'R_rxn01654_c'
p555
NsS'R_rxn02792_c'
p556
NsS'R_rxn00341_c'
p557
NsS'R_rxn09341_c'
p558
NsS'R_rxn05201_c'
p559
NsS'R_rxn00634_c'
p560
NsS'R_rxn02235_c'
p561
NsS'R_EX_cpd00588_e'
p562
NsS'R_rxn00171_c'
p563
NsS'R_rxn11749_c'
p564
NsS'R_rxn00737_c'
p565
NsS'R_rxn05485_c'
p566
NsS'R_rxn05197_c'
p567
NsS'R_rxn00539_c'
p568
NsS'R_rxn01519_c'
p569
NsS'R_rxn07876_c'
p570
NsS'R_rxn03174_c'
p571
NsS'R_EX_cpd00339_e'
p572
NsS'R_rxn10883_c'
p573
NsS'R_rxn00980_c'
p574
NsS'R_rxn05226_c'
p575
NsS'R_rxn00952_c'
p576
NsS'R_rxn00537_c'
p577
NsS'R_rxn00345_c'
p578
NsS'R_rxn02175_c'
p579
NsS'R_rxn05460_c'
p580
NsS'R_rxn01966_c'
p581
NsS'R_rxn02171_c'
p582
NsS'R_rxn03465_c'
p583
NsS'R_rxn00655_c'
p584
NsS'R_rxn08807_c'
p585
NsS'R_ID004_c'
p586
NsS'R_rxn07449_c'
p587
NsS'R_EX_cpd01242_e'
p588
NsS'R_rxn08820_c'
p589
NsS'R_rxn03489_c'
p590
NsS'R_rxn01967_c'
p591
NsS'R_rxn01135_c'
p592
NsS'R_rxn05396_c'
p593
NsS'R_rxn00552_c'
p594
NsS'R_rxn11584_c'
p595
NsS'R_cellwall_rxn'
p596
NsS'R_rxn00758_c'
p597
NsS'R_rxn00735_c'
p598
NsS'R_rxn08822_c'
p599
NsS'R_rxn04726_c'
p600
NsS'R_rxn08304_c'
p601
NsS'R_rxn01213_c'
p602
NsS'R_rxn01137_c'
p603
NsS'R_rxn01000_c'
p604
NsS'R_rxn09114_c'
p605
NsS'R_rxn00245_c'
p606
NsS'R_EX_cpd00030_e'
p607
NsS'R_rxn10484_c'
p608
NsS'R_rxn01297_c'
p609
NsS'R_rxn08803_c'
p610
NsS'R_rxn01406_c'
p611
NsS'R_rxn06510_c'
p612
NsS'R_rxn03419_c'
p613
NsS'R_rxn06735_c'
p614
NsS'R_rxn05209_c'
p615
NsS'R_EX_cpd00036_e'
p616
NsS'R_rxn10421_c'
p617
NsS'R_EX_cpd00305_e'
p618
NsS'R_rxn08801_c'
p619
NsS'R_rxn00831_c'
p620
NsS'R_rxn20606_c'
p621
NsS'R_rxn00412_c'
p622
NsS'R_EX_cpd00637_e'
p623
NsS'R_rxn01905_c'
p624
NsS'R_rxn07454_c'
p625
NsS'R_rxn01670_c'
p626
NsS'R_rxn00693_c'
p627
NsS'R_rxn05346_c'
p628
NsS'R_rxn02503_c'
p629
NsS'R_rxn00414_c'
p630
NsS'R_EX_cpd00092_e'
p631
NsS'R_rxn05734_c'
p632
NsS'R_rxn05616_c'
p633
NsS'R_rxn10257_c'
p634
NsS'R_rxn00416_c'
p635
NsS'R_rxn00178_c'
p636
NsS'R_rxn08186_c'
p637
NsS'R_rxn05287_c'
p638
NsS'R_EX_cpd00254_e'
p639
NsS'R_rxn05039_c'
p640
NsS'R_rxn02928_c'
p641
NsS'R_rxn14089_c'
p642
NsS'R_rxn10274_c'
p643
NsS'R_rxn03175_c'
p644
NsS'R_rxn01216_c'
p645
NsS'R_rxn00194_c'
p646
NsS'R_rxn00547_c'
p647
NsS'R_rxn11759_c'
p648
NsS'R_rxn10276_c'
p649
NsS'R_rxn00126_c'
p650
NsS'R_rxn01210_c'
p651
NsS'R_rxn00695_c'
p652
NsS'R_rxn01018_c'
p653
NsS'R_rxn01800_c'
p654
NsS'R_rxn01506_c'
p655
NsS'R_rxn10042_c'
p656
NsS'R_rxn07448_c'
p657
NsS'R_rxn09147_c'
p658
NsS'R_rxn02213_c'
p659
NsS'R_rxn04385_c'
p660
NsS'R_EX_cpd00210_e'
p661
NsS'R_rxn07493_c'
p662
NsS'R_rxn03536_c'
p663
NsS'R_rxn10770_c'
p664
NsS'R_rxn05348_c'
p665
NsS'R_rxn01332_c'
p666
NsS'R_rxn03137_c'
p667
NsS'R_rxn00471_c'
p668
NsS'R_rxn00077_c'
p669
NsS'R_rxn05158_c'
p670
NsS'R_EX_cpd10515_e'
p671
NsS'R_rxn08851_c'
p672
NsS'R_rxn10272_c'
p673
NsS'R_rxn04781_c'
p674
NsS'R_rxn03135_c'
p675
NsS'R_rxn09320_c'
p676
NsS'R_rxn00346_c'
p677
NsS'R_rxn00192_c'
p678
NsS'R_rxn00559_c'
p679
NsS'R_EX_cpd00117_e'
p680
NsS'R_rxn01215_c'
p681
NsS'R_rxn04604_c'
p682
NsS'R_rxn05244_c'
p683
NsS'R_rxn05740_c'
p684
NsS'R_rxn10253_c'
p685
NsS'R_rxn10030_c'
p686
NsS'R_rxn01019_c'
p687
NsS'R_rxn10255_c'
p688
NsS'R_EX_cpd00395_e'
p689
NsS'R_rxn03540_c'
p690
NsS'R_rxn02834_c'
p691
NsS'R_rxn10171_c'
p692
NsS'R_rxn04113_c'
p693
NsS'R_rxn03481_c'
p694
NsS'R_rxn09145_c'
p695
NsS'R_rxn03282_c'
p696
NsS'R_cofactor_rxn'
p697
NsS'R_rxn06517_c'
p698
NsS'R_rxn01303_c'
p699
NsS'R_rxn08311_c'
p700
NsS'R_rxn00777_c'
p701
NsS'R_rxn09163_c'
p702
NsS'R_rxn05655_c'
p703
NsS'R_rxn01985_c'
p704
NsS'R_rxn08792_c'
p705
NsS'R_rxn03843_c'
p706
NsS'R_rxn02584_c'
p707
NsS'R_rxn04908_c'
p708
NsS'R_rxn00804_c'
p709
NsS'R_rxn00010_c'
p710
NsS'R_rxn08845_c'
p711
NsS'R_rxn01987_c'
p712
NsS'R_rxn05735_c'
p713
NsS'R_EX_cpd00159_e'
p714
NsS'R_rxn03841_c'
p715
NsS'R_rxn01359_c'
p716
NsS'R_rxn01635_c'
p717
NsS'R_rxn01652_c'
p718
NsS'R_rxn01466_c'
p719
NsS'R_rxn10317_c'
p720
NsS'R_rxn00575_c'
p721
NsS'R_rxn10663_c'
p722
NsS'R_rxn12512_c'
p723
NsS'R_rxn10169_c'
p724
NsS'R_rxn00392_c'
p725
NsS'R_rxn00138_c'
p726
NsS'R_rxn00222_c'
p727
NsS'R_rxn06023_c'
p728
NsS'R_EX_cpd00161_e'
p729
NsS'R_rxn05560_c'
p730
NsS'R_rxn10060_c'
p731
NsS'R_rxn01396_c'
p732
NsS'R_rxn14294_c'
p733
NsS'R_rxn05455_c'
p734
NsS'R_rxn02090_c'
p735
NsS'R_rxn10053_c'
p736
NsS'R_rxn02320_c'
p737
NsS'R_rxn05248_c'
p738
NsS'R_rxn08655_c'
p739
NsS'R_rxn04270_c'
p740
NsS'R_EX_cpd01042_e'
p741
NsS'R_rxn01485_c'
p742
NsS'R_rxn00714_c'
p743
NsS'R_rxn01637_c'
p744
NsS'R_lipid_rxn'
p745
NsS'R_EX_cpd00154_e'
p746
NsS'R_rxn03644_c'
p747
NsS'R_rxn07100_c'
p748
NsS'R_rxn09063_c'
p749
NsS'R_rxn09657_c'
p750
NsS'R_rxn03483_c'
p751
NsS'R_rxn00410_c'
p752
NsS'R_rxn00985_c'
p753
NsS'R_rxn01844_c'
p754
NsS'R_rxn05610_c'
p755
NsS'R_rxn05155_c'
p756
NsS'R_rxn01116_c'
p757
NsS'R_rxn05429_c'
p758
NsS'R_EX_cpd00211_e'
p759
NsS'R_rxn08798_c'
p760
NsS'R_rxn03437_c'
p761
NsS'R_rxn02159_c'
p762
NsS'R_rxn08846_c'
p763
NsS'R_rxn07584_c'
p764
NsS'R_rxn01217_c'
p765
NsS'R_rxn03075_c'
p766
NsS'R_rxn18584_c'
p767
NsS'R_EX_cpd00322_e'
p768
NsS'R_rxn05938_c'
p769
NsS'R_rxn08657_c'
p770
NsS'R_rxn03486_c'
p771
NsS'R_rxn05466_c'
p772
NsS'R_rxn14138_c'
p773
NsS'R_rxn01256_c'
p774
NsS'R_rxn25164_c'
p775
NsS'R_rxn00285_c'
p776
NsS'R_EX_cpd00220_e'
p777
NsS'R_rxn05467_c'
p778
NsS'R_ID009_c'
p779
NsS'R_rxn01218_c'
p780
NsS'R_rxn03909_c'
p781
NsS'R_rxn14300_c'
p782
NsS'R_rxn01331_c'
p783
NsS'R_rxn01255_c'
p784
NsS'R_rxn10260_c'
p785
NsS'R_EX_cpd00141_e'
p786
NsS'R_rxn06760_c'
p787
NsS'R_rxn00802_c'
p788
NsS'R_rxn05223_c'
p789
NsS'R_rxn00148_c'
p790
NsS'R_EX_cpd00009_e'
p791
NsS'R_rxn00970_c'
p792
NsS'R_rxn06394_c'
p793
NsS'R_rxn01544_c'
p794
NsS'R_rxn06937_c'
p795
NsS'R_rxn02190_c'
p796
NsS'R_rxn09345_c'
p797
NsS'R_rxn13914_c'
p798
NsS'R_rxn00011_c'
p799
NsS'R_rxn07875_c'
p800
NsS'R_rxn04271_c'
p801
NsS'R_rxn05607_c'
p802
NsS'R_rxn05958_c'
p803
NsS'R_rxn10161_c'
p804
NsS'R_rxn05569_c'
p805
NsS'R_EX_cpd00567_e'
p806
NsS'R_rxn05363_c'
p807
NsS'R_rxn01964_c'
p808
NsS'R_EX_cpd00069_e'
p809
NsS'R_rxn01520_c'
p810
NsS'R_rxn00097_c'
p811
NsS'R_rxn10221_c'
p812
NsS'R_EX_cpd00099_e'
p813
NsS'R_EX_cpd00314_e'
p814
NsS'R_rxn03861_c'
p815
NsS'R_rxn02155_c'
p816
NsS'R_rxn01710_c'
p817
NsS'R_rxn01445_c'
p818
NsS'R_rxn05549_c'
p819
NsS'R_rxn01073_c'
p820
NsS'R_rxn03538_c'
p821
NsS'R_EX_cpd03048_e'
p822
NsS'R_EX_cpd00149_e'
p823
NsS'R_EX_cpd00065_e'
p824
NsS'R_rxn00132_c'
p825
NsS'R_rxn01231_c'
p826
NsS'R_rxn05733_c'
p827
NsS'R_rxn05367_c'
p828
NsS'R_rxn03904_c'
p829
NsS'R_rxn10225_c'
p830
NsS'R_rxn11809_c'
p831
NsS'R_rxn01105_c'
p832
NsS'R_rxn05175_c'
p833
NsS'R_EX_cpd00067_e'
p834
NsS'R_rxn10324_c'
p835
NsS'R_rxn01522_c'
p836
NsS'R_rxn10223_c'
p837
NsS'R_rxn00938_c'
p838
NsS'R_rxn01834_c'
p839
NsS'R_rxn05347_c'
p840
NsS'R_rxn04045_c'
p841
NsS'R_rxn00620_c'
p842
NsS'R_rxn08810_c'
p843
NsS'R_rxn32054_c'
p844
NsS'R_rxn09348_c'
p845
NsS'R_rxn10184_c'
p846
NsS'R_rxn05061_c'
p847
NsS'R_rxn00147_c'
p848
NsS'R_rxn05451_c'
p849
NsS'R_biomass'
p850
NsS'R_ID010_c'
p851
NsS'R_rxn04453_c'
p852
NsS'R_rxn02283_c'
p853
NsS'R_rxn01671_c'
p854
NsS'R_EX_cpd00226_e'
p855
NsS'R_rxn13251_c'
p856
NsS'R_rxn00256_c'
p857
NsS'R_EX_cpd00027_e'
p858
NsS'R_rxn02305_c'
p859
NsS'R_rxn01505_c'
p860
NsS'R_rxn04737_c'
p861
NsS'R_rxn13022_c'
p862
NsS'R_rxn08814_c'
p863
NsS'R_rxn01199_c'
p864
NsS'R_rxn02362_c'
p865
NsS'R_rxn01302_c'
p866
NsS'R_rxn01507_c'
p867
NsS'R_rxn02015_c'
p868
NsS'R_rxn02269_c'
p869
NsS'R_EX_cpd00971_e'
p870
NsS'R_rxn08816_c'
p871
NsS'R_rxn08976_c'
p872
NsS'R_rxn05388_c'
p873
NsS'R_rxn03408_c'
p874
NsS'R_rxn00376_c'
p875
NsS'R_rxn01961_c'
p876
NsS'R_rxn00420_c'
p877
NsS'R_EX_cpd29317_e'
p878
NsS'R_rxn05349_c'
p879
NsS'R_rxn01388_c'
p880
NsS'R_rxn03136_c'
p881
NsS'R_SK_cpd11416_c'
p882
NsS'R_rxn07673_c'
p883
NsS'R_rxn10562_c'
p884
NsS'R_rxn01538_c'
p885
NsS'R_rxn08818_c'
p886
NsS'R_rxn14054_c'
p887
NsS'R_rxn00055_c'
p888
NsS'R_rxn04780_c'
p889
NsS'R_rxn01653_c'
p890
NsS'R_rxn00193_c'
p891
NsS'R_rxn02011_c'
p892
NsS'R_rxn00293_c'
p893
NsS'R_rxn00500_c'
p894
NsS'R_rxn00602_c'
p895
NsS'R_rxn01446_c'
p896
NsS'R_EX_cpd00644_e'
p897
NsS'R_rxn01257_c'
p898
NsS'R_rxn00776_c'
p899
NsS'R_rxn00800_c'
p900
NsS'R_rxn00299_c'
p901
NsS'R_EX_cpd00063_e'
p902
NsS'R_rxn08839_c'
p903
NsS'R_rxn05233_c'
p904
NsS'R_rxn08817_c'
p905
NsS'R_rxn06094_c'
p906
NsS'R_rxn08952_c'
p907
NsS'R_rxn03903_c'
p908
NsS'R_rxn00974_c'
p909
NsS'R_rxn03482_c'
p910
NsS'R_rxn00958_c'
p911
NsS'R_rxn03907_c'
p912
NsS'R_rxn00606_c'
p913
NsS'R_rxn08793_c'
p914
NsS'R_rxn00259_c'
p915
NsS'R_rxn00915_c'
p916
NsS'R_EX_cpd00060_e'
p917
NsS'R_rxn03901_c'
p918
NsS'R_EX_cpd01030_e'
p919
NsS'R_rxn08300_c'
p920
NsS'R_rxn10263_c'
p921
NsS'R_rxn05518_c'
p922
NsS'R_rxn01281_c'
p923
NsS'R_rxn00272_c'
p924
NsS'R_rxn01517_c'
p925
NsS'R_rxn00161_c'
p926
NsS'R_rxn03721_c'
p927
NsS'R_rxn05458_c'
p928
NsS'R_rxn01358_c'
p929
NsS'R_rxn10261_c'
p930
NsS'R_rxn01286_c'
p931
NsS'R_K20025_c'
p932
NsS'R_rxn00569_c'
p933
NsS'R_R11076_c'
p934
NsS'R_rxn02961_c'
p935
NsS'R_rxn05383_c'
p936
NsS'R_rxn07670_c'
p937
NsS'R_rxn03005_c'
p938
NsS'R_rxn02400_c'
p939
NsS'R_rxn00505_c'
p940
NsS'R_rxn00189_c'
p941
NsS'R_rxn04032_c'
p942
NsS'R_dna_rxn'
p943
NsS'R_rxn30075_c'
p944
NsS'R_R01174_5_c'
p945
NsS'R_rxn02285_c'
p946
NsS'R_rxn34357_c'
p947
NsS'R_rxn05871_c'
p948
NsS'R_rxn02402_c'
p949
NsS'R_rxn08819_c'
p950
NsS'R_rxn00913_c'
p951
NsS'R_rxn05289_c'
p952
NsS'R_EX_cpd05178_e'
p953
NsS'R_EX_cpd00001_e'
p954
NsS'R_rxn03365_c'
p955
NsS'R_EX_cpd00443_e'
p956
NsS'R_rxn10168_c'
p957
NsS'R_rxn01334_c'
p958
NsS'R_rxn00770_c'
p959
NsS'R_EX_cpd00162_e'
p960
NsS'R_rxn00775_c'
p961
NsS'R_rxn02604_c'
p962
NsS'R_rxn07124_c'
p963
NsS'R_rxn13012_c'
p964
NsS'R_rxn00711_c'
p965
NsS'R_rxn02421_c'
p966
NsS'R_rxn05392_c'
p967
NsS'R_rxn05494_c'
p968
NsS'R_rxn00143_c'
p969
NsS'R_rxn04238_c'
p970
NsS'R_rxn05006_c'
p971
NsS'R_rxn00141_c'
p972
NsS'R_rxn01636_c'
p973
NsS'R_EX_cpd00105_e'
p974
NsS'R_EX_cpd01711_e'
p975
NsS'R_rxn09109_c'
p976
NsS'R_rxn00950_c'
p977
NsS'R_rxn08799_c'
p978
NsS'R_rxn03030_c'
p979
NsS'R_rxn00545_c'
p980
NsS'R_rxn09979_c'
p981
NsS'R_rxn05172_c'
p982
NsS'R_rxn05345_c'
p983
NsS'R_rxn01509_c'
p984
NsS'R_rxn00213_c'
p985
NsS'R_rxn05054_c'
p986
NsS'R_rxn08656_c'
p987
NsS'R_rxn16140_c'
p988
NsS'R_rxn01739_c'
p989
NsS'R_rxn05343_c'
p990
NsS'R_rxn00145_c'
p991
NsS'R_rxn05736_c'
p992
NsS'R_rxn01717_c'
p993
NsS'R_rxn00105_c'
p994
NsS'R_rxn00780_c'
p995
NsS'R_EX_C21399_e'
p996
NsS'R_rxn08804_c'
p997
NsS'R_rxn03837_c'
p998
NsS'R_EX_cpd00029_e'
p999
NsS'R_rxn04658_c'
p1000
NsS'R_rxn05465_c'
p1001
NsS'R_rxn06728_c'
p1002
NsS'R_rxn10288_c'
p1003
NsS'R_EX_cpd00221_e'
p1004
NsS'R_EX_cpd00264_e'
p1005
NsS'R_rxn02229_c'
p1006
NsS'R_rxn01953_c'
p1007
NsS'R_rxn00834_c'
p1008
NsS'R_rxn29571_c'
p1009
NsS'R_rxn00461_c'
p1010
NsS'R_rxn02465_c'
p1011
NsS'R_rxn05375_c'
p1012
NsS'R_rxn05040_c'
p1013
NsS'R_rxn02821_c'
p1014
NsS'R_rxn00122_c'
p1015
NsS'R_rxn00313_c'
p1016
NsS'R_rxn09449_c'
p1017
NsS'R_rxn01182_c'
p1018
NsS'R_rxn00784_c'
p1019
NsS'R_rna_rxn'
p1020
NsS'R_rxn01790_c'
p1021
NsS'R_rxn01270_c'
p1022
NsS'R_rxn08308_c'
p1023
NsS'R_rxn05957_c'
p1024
NsS'R_rxn03884_c'
p1025
NsS'R_rxn02341_c'
p1026
NsS'R_rxn05251_c'
p1027
NsS'R_rxn05005_c'
p1028
NsS'R_rxn00786_c'
p1029
NsS'R_rxn03908_c'
p1030
NsS'R_rxn08842_c'
p1031
NsS'R_rxn00973_c'
p1032
NsS'R_rxn02286_c'
p1033
NsS'R_rxn01333_c'
p1034
NsS'R_rxn01343_c'
p1035
NsS'R_rxn10220_c'
p1036
NsS'R_rxn00295_c'
p1037
NsS'R_rxn01754_c'
p1038
NsS'R_EX_cpd00023_e'
p1039
NsS'R_rxn08168_c'
p1040
NsS'R_rxn08971_c'
p1041
NsS'R_rxn07720_c'
p1042
NsS'R_rxn05417_c'
p1043
NsS'R_rxn04082_c'
p1044
NsS'R_rxn01639_c'
p1045
NsS'R_EX_cpd00066_e'
p1046
NsS'R_rxn08809_c'
p1047
NsS'R_rxn03094_c'
p1048
NsS'R_rxn12510_c'
p1049
NsS'R_rxn10473_c'
p1050
NsS'R_rxn00902_c'
p1051
NsS'R_rxn00423_c'
p1052
NsS'R_rxn00404_c'
p1053
NsS'R_rxn01521_c'
p1054
NsS'R_rxn02900_c'
p1055
NsS'R_rxn05408_c'
p1056
NsS'R_rxn10224_c'
p1057
NsS'R_rxn08756_c'
p1058
NsS'R_rxn08299_c'
p1059
NsS'R_rxn00799_c'
p1060
NsS'R_rxn08975_c'
p1061
NsS'R_rxn00012_c'
p1062
NsS'R_rxn08306_c'
p1063
NsS'R_rxn00871_c'
p1064
NsS'R_rxn10222_c'
p1065
NsS'R_rxn00931_c'
p1066
NsS'R_rxn00542_c'
p1067
NsS'R_EX_cpd00064_e'
p1068
NsS'R_rxn01106_c'
p1069
NsS'R_rxn08797_c'
p1070
NsS'R_rxn06600_c'
p1071
NsS'R_EX_cpd19585_e'
p1072
NsS'R_rxn11334_c'
p1073
NsS'R_rxn01101_c'
p1074
NsS'R_rxn00165_c'
p1075
NsS'R_rxn05814_c'
p1076
NsS'R_rxn03666_c'
p1077
NsS'R_rxn09172_c'
p1078
NsS'R_rxn10618_c'
p1079
NsS'R_rxn09978_c'
p1080
NsS'R_rxn00100_c'
p1081
NsS'R_EX_cpd00132_e'
p1082
NsS'R_rxn04043_c'
p1083
NsS'R_rxn03004_c'
p1084
NsS'R_rxn03849_c'
p1085
NsS'R_rxn05059_c'
p1086
NsS'R_rxn00342_c'
p1087
NsS'R_rxn05255_c'
p1088
NsS'R_rxn00211_c'
p1089
NsS'R_rxn03333_c'
p1090
NsS'R_rxn10321_c'
p1091
NsS'R_rxn00469_c'
p1092
NsS'R_rxn00992_c'
p1093
NsS'R_rxn03002_c'
p1094
NsS'R_rxn00390_c'
p1095
NsS'R_R01214_c'
p1096
NsS'R_rxn00546_c'
p1097
NsS'R_rxn04736_c'
p1098
NsS'R_R01174_1_c'
p1099
NsS'R_EX_cpd00263_e'
p1100
NsS'R_rxn00499_c'
p1101
NsS'R_EX_cpd00039_e'
p1102
NsS'R_COG3601_c'
p1103
NsS'R_EX_cpd00492_e'
p1104
NsS'R_EX_cpd00205_e'
p1105
NsS'R_rxn18524_c'
p1106
NsS'R_EX_cpd00122_e'
p1107
NsS'R_rxn01986_c'
p1108
NsS'R_protein_rxn'
p1109
NsS'R_rxn00127_c'
p1110
NsS'R_rxn05671_c'
p1111
NsS'R_EX_cpd00084_e'
p1112
NsS'R_rxn00859_c'
p1113
NsS'R_rxn10474_c'
p1114
NsS'R_EX_cpd00276_e'
p1115
NsS'R_rxn02521_c'
p1116
NsS'R_rxn00258_c'
p1117
NsS'R_rxn10284_c'
p1118
NsS'R_rxn00060_c'
p1119
NsS'R_rxn07672_c'
p1120
NsS'R_rxn00292_c'
p1121
NsS'R_rxn05456_c'
p1122
NsS'R_rxn06060_c'
p1123
NsS'R_rxn08850_c'
p1124
NsS'R_rxn10286_c'
p1125
NsS'R_rxn09065_c'
p1126
NsS'R_rxn10563_c'
p1127
NsS'R_rxn00933_c'
p1128
NsS'R_rxn00566_c'
p1129
NsS'R_R01174_4_c'
p1130
NsS'R_rxn08838_c'
p1131
NsS'R_rxn00605_c'
p1132
NsS'R_rxn01434_c'
p1133
NsS'R_rxn05169_c'
p1134
NsS'R_rxn08061_c'
p1135
NsS'R_rxn02339_c'
p1136
NsS'R_rxn06905_c'
p1137
NsS'R_rxn05599_c'
p1138
NsS'R_rxn07346_c'
p1139
NsS'R_rxn10259_c'
p1140
NsS'R_rxn00836_c'
p1141
NsS'R_rxn00686_c'
p1142
NsS'R_rxn03886_c'
p1143
NsS'R_rxn01951_c'
p1144
NsS'R_rxn01646_c'
p1145
NsS'R_rxn08808_c'
p1146
NssS'genes'
p1147
c__builtin__
set
p1148
((lp1149
tp1150
Rp1151
sS'gene_sets'
p1152
(dp1153
g8
(lp1154
sg9
(lp1155
sg10
(lp1156
sg11
(lp1157
sg12
(lp1158
sg13
(lp1159
sg14
(lp1160
sg15
(lp1161
sg16
(lp1162
sg17
(lp1163
sg18
(lp1164
sg19
(lp1165
sg20
(lp1166
sg21
(lp1167
sg22
(lp1168
sg23
(lp1169
sg24
(lp1170
sg25
(lp1171
sg26
(lp1172
sg27
(lp1173
sg28
(lp1174
sg29
(lp1175
sg30
(lp1176
sg31
(lp1177
sg32
(lp1178
sg33
(lp1179
sg34
(lp1180
sg35
(lp1181
sg36
(lp1182
sg37
(lp1183
sg38
(lp1184
sg39
(lp1185
sg40
(lp1186
sg41
(lp1187
sg42
(lp1188
sg43
(lp1189
sg44
(lp1190
sg45
(lp1191
sg46
(lp1192
sg47
(lp1193
sg48
(lp1194
sg49
(lp1195
sg50
(lp1196
sg51
(lp1197
sg52
(lp1198
sg53
(lp1199
sg54
(lp1200
sg55
(lp1201
sg56
(lp1202
sg57
(lp1203
sg58
(lp1204
sg59
(lp1205
sg60
(lp1206
sg61
(lp1207
sg62
(lp1208
sg63
(lp1209
sg64
(lp1210
sg65
(lp1211
sg66
(lp1212
sg67
(lp1213
sg68
(lp1214
sg69
(lp1215
sg70
(lp1216
sg71
(lp1217
sg72
(lp1218
sg73
(lp1219
sg74
(lp1220
sg75
(lp1221
sg76
(lp1222
sg77
(lp1223
sg78
(lp1224
sg79
(lp1225
sg80
(lp1226
sg81
(lp1227
sg82
(lp1228
sg83
(lp1229
sg84
(lp1230
sg85
(lp1231
sg86
(lp1232
sg87
(lp1233
sg88
(lp1234
sg89
(lp1235
sg90
(lp1236
sg91
(lp1237
sg92
(lp1238
sg93
(lp1239
sg94
(lp1240
sg95
(lp1241
sg96
(lp1242
sg97
(lp1243
sg98
(lp1244
sg99
(lp1245
sg100
(lp1246
sg101
(lp1247
sg102
(lp1248
sg103
(lp1249
sg104
(lp1250
sg105
(lp1251
sg106
(lp1252
sg107
(lp1253
sg108
(lp1254
sg109
(lp1255
sg110
(lp1256
sg111
(lp1257
sg112
(lp1258
sg113
(lp1259
sg114
(lp1260
sg115
(lp1261
sg116
(lp1262
sg117
(lp1263
sg118
(lp1264
sg119
(lp1265
sg120
(lp1266
sg121
(lp1267
sg122
(lp1268
sg123
(lp1269
sg124
(lp1270
sg125
(lp1271
sg126
(lp1272
sg127
(lp1273
sg128
(lp1274
sg129
(lp1275
sg130
(lp1276
sg131
(lp1277
sg132
(lp1278
sg133
(lp1279
sg134
(lp1280
sg135
(lp1281
sg136
(lp1282
sg137
(lp1283
sg138
(lp1284
sg139
(lp1285
sg140
(lp1286
sg141
(lp1287
sg142
(lp1288
sg143
(lp1289
sg144
(lp1290
sg145
(lp1291
sg146
(lp1292
sg147
(lp1293
sg148
(lp1294
sg149
(lp1295
sg150
(lp1296
sg151
(lp1297
sg152
(lp1298
sg153
(lp1299
sg154
(lp1300
sg155
(lp1301
sg156
(lp1302
sg157
(lp1303
sg158
(lp1304
sg159
(lp1305
sg160
(lp1306
sg161
(lp1307
sg162
(lp1308
sg163
(lp1309
sg164
(lp1310
sg165
(lp1311
sg166
(lp1312
sg167
(lp1313
sg168
(lp1314
sg169
(lp1315
sg170
(lp1316
sg171
(lp1317
sg172
(lp1318
sg173
(lp1319
sg174
(lp1320
sg175
(lp1321
sg176
(lp1322
sg177
(lp1323
sg178
(lp1324
sg179
(lp1325
sg180
(lp1326
sg181
(lp1327
sg182
(lp1328
sg183
(lp1329
sg184
(lp1330
sg185
(lp1331
sg186
(lp1332
sg187
(lp1333
sg188
(lp1334
sg189
(lp1335
sg190
(lp1336
sg191
(lp1337
sg192
(lp1338
sg193
(lp1339
sg194
(lp1340
sg195
(lp1341
sg196
(lp1342
sg197
(lp1343
sg198
(lp1344
sg199
(lp1345
sg200
(lp1346
sg201
(lp1347
sg202
(lp1348
sg203
(lp1349
sg204
(lp1350
sg205
(lp1351
sg206
(lp1352
sg207
(lp1353
sg208
(lp1354
sg209
(lp1355
sg210
(lp1356
sg211
(lp1357
sg212
(lp1358
sg213
(lp1359
sg214
(lp1360
sg215
(lp1361
sg216
(lp1362
sg217
(lp1363
sg218
(lp1364
sg219
(lp1365
sg220
(lp1366
sg221
(lp1367
sg222
(lp1368
sg223
(lp1369
sg224
(lp1370
sg225
(lp1371
sg226
(lp1372
sg227
(lp1373
sg228
(lp1374
sg229
(lp1375
sg230
(lp1376
sg231
(lp1377
sg232
(lp1378
sg233
(lp1379
sg234
(lp1380
sg235
(lp1381
sg236
(lp1382
sg237
(lp1383
sg238
(lp1384
sg239
(lp1385
sg240
(lp1386
sg241
(lp1387
sg242
(lp1388
sg243
(lp1389
sg244
(lp1390
sg245
(lp1391
sg246
(lp1392
sg247
(lp1393
sg248
(lp1394
sg249
(lp1395
sg250
(lp1396
sg251
(lp1397
sg252
(lp1398
sg253
(lp1399
sg254
(lp1400
sg255
(lp1401
sg256
(lp1402
sg257
(lp1403
sg258
(lp1404
sg259
(lp1405
sg260
(lp1406
sg261
(lp1407
sg262
(lp1408
sg263
(lp1409
sg264
(lp1410
sg265
(lp1411
sg266
(lp1412
sg267
(lp1413
sg268
(lp1414
sg269
(lp1415
sg270
(lp1416
sg271
(lp1417
sg272
(lp1418
sg273
(lp1419
sg274
(lp1420
sg275
(lp1421
sg276
(lp1422
sg277
(lp1423
sg278
(lp1424
sg279
(lp1425
sg280
(lp1426
sg281
(lp1427
sg282
(lp1428
sg283
(lp1429
sg284
(lp1430
sg285
(lp1431
sg286
(lp1432
sg287
(lp1433
sg288
(lp1434
sg289
(lp1435
sg290
(lp1436
sg291
(lp1437
sg292
(lp1438
sg293
(lp1439
sg294
(lp1440
sg295
(lp1441
sg296
(lp1442
sg297
(lp1443
sg298
(lp1444
sg299
(lp1445
sg300
(lp1446
sg301
(lp1447
sg302
(lp1448
sg303
(lp1449
sg304
(lp1450
sg305
(lp1451
sg306
(lp1452
sg307
(lp1453
sg308
(lp1454
sg309
(lp1455
sg310
(lp1456
sg311
(lp1457
sg312
(lp1458
sg313
(lp1459
sg314
(lp1460
sg315
(lp1461
sg316
(lp1462
sg317
(lp1463
sg318
(lp1464
sg319
(lp1465
sg320
(lp1466
sg321
(lp1467
sg322
(lp1468
sg323
(lp1469
sg324
(lp1470
sg325
(lp1471
sg326
(lp1472
sg327
(lp1473
sg328
(lp1474
sg329
(lp1475
sg330
(lp1476
sg331
(lp1477
sg332
(lp1478
sg333
(lp1479
sg334
(lp1480
sg335
(lp1481
sg336
(lp1482
sg337
(lp1483
sg338
(lp1484
sg339
(lp1485
sg340
(lp1486
sg341
(lp1487
sg342
(lp1488
sg343
(lp1489
sg344
(lp1490
sg345
(lp1491
sg346
(lp1492
sg347
(lp1493
sg348
(lp1494
sg349
(lp1495
sg350
(lp1496
sg351
(lp1497
sg352
(lp1498
sg353
(lp1499
sg354
(lp1500
sg355
(lp1501
sg356
(lp1502
sg357
(lp1503
sg358
(lp1504
sg359
(lp1505
sg360
(lp1506
sg361
(lp1507
sg362
(lp1508
sg363
(lp1509
sg364
(lp1510
sg365
(lp1511
sg366
(lp1512
sg367
(lp1513
sg368
(lp1514
sg369
(lp1515
sg370
(lp1516
sg371
(lp1517
sg372
(lp1518
sg373
(lp1519
sg374
(lp1520
sg375
(lp1521
sg376
(lp1522
sg377
(lp1523
sg378
(lp1524
sg379
(lp1525
sg380
(lp1526
sg381
(lp1527
sg382
(lp1528
sg383
(lp1529
sg384
(lp1530
sg385
(lp1531
sg386
(lp1532
sg387
(lp1533
sg388
(lp1534
sg389
(lp1535
sg390
(lp1536
sg391
(lp1537
sg392
(lp1538
sg393
(lp1539
sg394
(lp1540
sg395
(lp1541
sg396
(lp1542
sg397
(lp1543
sg398
(lp1544
sg399
(lp1545
sg400
(lp1546
sg401
(lp1547
sg402
(lp1548
sg403
(lp1549
sg404
(lp1550
sg405
(lp1551
sg406
(lp1552
sg407
(lp1553
sg408
(lp1554
sg409
(lp1555
sg410
(lp1556
sg411
(lp1557
sg412
(lp1558
sg413
(lp1559
sg414
(lp1560
sg415
(lp1561
sg416
(lp1562
sg417
(lp1563
sg418
(lp1564
sg419
(lp1565
sg420
(lp1566
sg421
(lp1567
sg422
(lp1568
sg423
(lp1569
sg424
(lp1570
sg425
(lp1571
sg426
(lp1572
sg427
(lp1573
sg428
(lp1574
sg429
(lp1575
sg430
(lp1576
sg431
(lp1577
sg432
(lp1578
sg433
(lp1579
sg434
(lp1580
sg435
(lp1581
sg436
(lp1582
sg437
(lp1583
sg438
(lp1584
sg439
(lp1585
sg440
(lp1586
sg441
(lp1587
sg442
(lp1588
sg443
(lp1589
sg444
(lp1590
sg445
(lp1591
sg446
(lp1592
sg447
(lp1593
sg448
(lp1594
sg449
(lp1595
sg450
(lp1596
sg451
(lp1597
sg452
(lp1598
sg453
(lp1599
sg454
(lp1600
sg455
(lp1601
sg456
(lp1602
sg457
(lp1603
sg458
(lp1604
sg459
(lp1605
sg460
(lp1606
sg461
(lp1607
sg462
(lp1608
sg463
(lp1609
sg464
(lp1610
sg465
(lp1611
sg466
(lp1612
sg467
(lp1613
sg468
(lp1614
sg469
(lp1615
sg470
(lp1616
sg471
(lp1617
sg472
(lp1618
sg473
(lp1619
sg474
(lp1620
sg475
(lp1621
sg476
(lp1622
sg477
(lp1623
sg478
(lp1624
sg479
(lp1625
sg480
(lp1626
sg481
(lp1627
sg482
(lp1628
sg483
(lp1629
sg484
(lp1630
sg485
(lp1631
sg486
(lp1632
sg487
(lp1633
sg488
(lp1634
sg489
(lp1635
sg490
(lp1636
sg491
(lp1637
sg492
(lp1638
sg493
(lp1639
sg494
(lp1640
sg495
(lp1641
sg496
(lp1642
sg497
(lp1643
sg498
(lp1644
sg499
(lp1645
sg500
(lp1646
sg501
(lp1647
sg502
(lp1648
sg503
(lp1649
sg504
(lp1650
sg505
(lp1651
sg506
(lp1652
sg507
(lp1653
sg508
(lp1654
sg509
(lp1655
sg510
(lp1656
sg511
(lp1657
sg512
(lp1658
sg513
(lp1659
sg514
(lp1660
sg515
(lp1661
sg516
(lp1662
sg517
(lp1663
sg518
(lp1664
sg519
(lp1665
sg520
(lp1666
sg521
(lp1667
sg522
(lp1668
sg523
(lp1669
sg524
(lp1670
sg525
(lp1671
sg526
(lp1672
sg527
(lp1673
sg528
(lp1674
sg529
(lp1675
sg530
(lp1676
sg531
(lp1677
sg532
(lp1678
sg533
(lp1679
sg534
(lp1680
sg535
(lp1681
sg536
(lp1682
sg537
(lp1683
sg538
(lp1684
sg539
(lp1685
sg540
(lp1686
sg541
(lp1687
sg542
(lp1688
sg543
(lp1689
sg544
(lp1690
sg545
(lp1691
sg546
(lp1692
sg547
(lp1693
sg548
(lp1694
sg549
(lp1695
sg550
(lp1696
sg551
(lp1697
sg552
(lp1698
sg553
(lp1699
sg554
(lp1700
sg555
(lp1701
sg556
(lp1702
sg557
(lp1703
sg558
(lp1704
sg559
(lp1705
sg560
(lp1706
sg561
(lp1707
sg562
(lp1708
sg563
(lp1709
sg564
(lp1710
sg565
(lp1711
sg566
(lp1712
sg567
(lp1713
sg568
(lp1714
sg569
(lp1715
sg570
(lp1716
sg571
(lp1717
sg572
(lp1718
sg573
(lp1719
sg574
(lp1720
sg575
(lp1721
sg576
(lp1722
sg577
(lp1723
sg578
(lp1724
sg579
(lp1725
sg580
(lp1726
sg581
(lp1727
sg582
(lp1728
sg583
(lp1729
sg584
(lp1730
sg585
(lp1731
sg586
(lp1732
sg587
(lp1733
sg588
(lp1734
sg589
(lp1735
sg590
(lp1736
sg591
(lp1737
sg592
(lp1738
sg593
(lp1739
sg594
(lp1740
sg595
(lp1741
sg596
(lp1742
sg597
(lp1743
sg598
(lp1744
sg599
(lp1745
sg600
(lp1746
sg601
(lp1747
sg602
(lp1748
sg603
(lp1749
sg604
(lp1750
sg605
(lp1751
sg606
(lp1752
sg607
(lp1753
sg608
(lp1754
sg609
(lp1755
sg610
(lp1756
sg611
(lp1757
sg612
(lp1758
sg613
(lp1759
sg614
(lp1760
sg615
(lp1761
sg616
(lp1762
sg617
(lp1763
sg618
(lp1764
sg619
(lp1765
sg620
(lp1766
sg621
(lp1767
sg622
(lp1768
sg623
(lp1769
sg624
(lp1770
sg625
(lp1771
sg626
(lp1772
sg627
(lp1773
sg628
(lp1774
sg629
(lp1775
sg630
(lp1776
sg631
(lp1777
sg632
(lp1778
sg633
(lp1779
sg634
(lp1780
sg635
(lp1781
sg636
(lp1782
sg637
(lp1783
sg638
(lp1784
sg639
(lp1785
sg640
(lp1786
sg641
(lp1787
sg642
(lp1788
sg643
(lp1789
sg644
(lp1790
sg645
(lp1791
sg646
(lp1792
sg647
(lp1793
sg648
(lp1794
sg649
(lp1795
sg650
(lp1796
sg651
(lp1797
sg652
(lp1798
sg653
(lp1799
sg654
(lp1800
sg655
(lp1801
sg656
(lp1802
sg657
(lp1803
sg658
(lp1804
sg659
(lp1805
sg660
(lp1806
sg661
(lp1807
sg662
(lp1808
sg663
(lp1809
sg664
(lp1810
sg665
(lp1811
sg666
(lp1812
sg667
(lp1813
sg668
(lp1814
sg669
(lp1815
sg670
(lp1816
sg671
(lp1817
sg672
(lp1818
sg673
(lp1819
sg674
(lp1820
sg675
(lp1821
sg676
(lp1822
sg677
(lp1823
sg678
(lp1824
sg679
(lp1825
sg680
(lp1826
sg681
(lp1827
sg682
(lp1828
sg683
(lp1829
sg684
(lp1830
sg685
(lp1831
sg686
(lp1832
sg687
(lp1833
sg688
(lp1834
sg689
(lp1835
sg690
(lp1836
sg691
(lp1837
sg692
(lp1838
sg693
(lp1839
sg694
(lp1840
sg695
(lp1841
sg696
(lp1842
sg697
(lp1843
sg698
(lp1844
sg699
(lp1845
sg700
(lp1846
sg701
(lp1847
sg702
(lp1848
sg703
(lp1849
sg704
(lp1850
sg705
(lp1851
sg706
(lp1852
sg707
(lp1853
sg708
(lp1854
sg709
(lp1855
sg710
(lp1856
sg711
(lp1857
sg712
(lp1858
sg713
(lp1859
sg714
(lp1860
sg715
(lp1861
sg716
(lp1862
sg717
(lp1863
sg718
(lp1864
sg719
(lp1865
sg720
(lp1866
sg721
(lp1867
sg722
(lp1868
sg723
(lp1869
sg724
(lp1870
sg725
(lp1871
sg726
(lp1872
sg727
(lp1873
sg728
(lp1874
sg729
(lp1875
sg730
(lp1876
sg731
(lp1877
sg732
(lp1878
sg733
(lp1879
sg734
(lp1880
sg735
(lp1881
sg736
(lp1882
sg737
(lp1883
sg738
(lp1884
sg739
(lp1885
sg740
(lp1886
sg741
(lp1887
sg742
(lp1888
sg743
(lp1889
sg744
(lp1890
sg745
(lp1891
sg746
(lp1892
sg747
(lp1893
sg748
(lp1894
sg749
(lp1895
sg750
(lp1896
sg751
(lp1897
sg752
(lp1898
sg753
(lp1899
sg754
(lp1900
sg755
(lp1901
sg756
(lp1902
sg757
(lp1903
sg758
(lp1904
sg759
(lp1905
sg760
(lp1906
sg761
(lp1907
sg762
(lp1908
sg763
(lp1909
sg764
(lp1910
sg765
(lp1911
sg766
(lp1912
sg767
(lp1913
sg768
(lp1914
sg769
(lp1915
sg770
(lp1916
sg771
(lp1917
sg772
(lp1918
sg773
(lp1919
sg774
(lp1920
sg775
(lp1921
sg776
(lp1922
sg777
(lp1923
sg778
(lp1924
sg779
(lp1925
sg780
(lp1926
sg781
(lp1927
sg782
(lp1928
sg783
(lp1929
sg784
(lp1930
sg785
(lp1931
sg786
(lp1932
sg787
(lp1933
sg788
(lp1934
sg789
(lp1935
sg790
(lp1936
sg791
(lp1937
sg792
(lp1938
sg793
(lp1939
sg794
(lp1940
sg795
(lp1941
sg796
(lp1942
sg797
(lp1943
sg798
(lp1944
sg799
(lp1945
sg800
(lp1946
sg801
(lp1947
sg802
(lp1948
sg803
(lp1949
sg804
(lp1950
sg805
(lp1951
sg806
(lp1952
sg807
(lp1953
sg808
(lp1954
sg809
(lp1955
sg810
(lp1956
sg811
(lp1957
sg812
(lp1958
sg813
(lp1959
sg814
(lp1960
sg815
(lp1961
sg816
(lp1962
sg817
(lp1963
sg818
(lp1964
sg819
(lp1965
sg820
(lp1966
sg821
(lp1967
sg822
(lp1968
sg823
(lp1969
sg824
(lp1970
sg825
(lp1971
sg826
(lp1972
sg827
(lp1973
sg828
(lp1974
sg829
(lp1975
sg830
(lp1976
sg831
(lp1977
sg832
(lp1978
sg833
(lp1979
sg834
(lp1980
sg835
(lp1981
sg836
(lp1982
sg837
(lp1983
sg838
(lp1984
sg839
(lp1985
sg840
(lp1986
sg841
(lp1987
sg842
(lp1988
sg843
(lp1989
sg844
(lp1990
sg845
(lp1991
sg846
(lp1992
sg847
(lp1993
sg848
(lp1994
sg849
(lp1995
sg850
(lp1996
sg851
(lp1997
sg852
(lp1998
sg853
(lp1999
sg854
(lp2000
sg855
(lp2001
sg856
(lp2002
sg857
(lp2003
sg858
(lp2004
sg859
(lp2005
sg860
(lp2006
sg861
(lp2007
sg862
(lp2008
sg863
(lp2009
sg864
(lp2010
sg865
(lp2011
sg866
(lp2012
sg867
(lp2013
sg868
(lp2014
sg869
(lp2015
sg870
(lp2016
sg871
(lp2017
sg872
(lp2018
sg873
(lp2019
sg874
(lp2020
sg875
(lp2021
sg876
(lp2022
sg877
(lp2023
sg878
(lp2024
sg879
(lp2025
sg880
(lp2026
sg881
(lp2027
sg882
(lp2028
sg883
(lp2029
sg884
(lp2030
sg885
(lp2031
sg886
(lp2032
sg887
(lp2033
sg888
(lp2034
sg889
(lp2035
sg890
(lp2036
sg891
(lp2037
sg892
(lp2038
sg893
(lp2039
sg894
(lp2040
sg895
(lp2041
sg896
(lp2042
sg897
(lp2043
sg898
(lp2044
sg899
(lp2045
sg900
(lp2046
sg901
(lp2047
sg902
(lp2048
sg903
(lp2049
sg904
(lp2050
sg905
(lp2051
sg906
(lp2052
sg907
(lp2053
sg908
(lp2054
sg909
(lp2055
sg910
(lp2056
sg911
(lp2057
sg912
(lp2058
sg913
(lp2059
sg914
(lp2060
sg915
(lp2061
sg916
(lp2062
sg917
(lp2063
sg918
(lp2064
sg919
(lp2065
sg920
(lp2066
sg921
(lp2067
sg922
(lp2068
sg923
(lp2069
sg924
(lp2070
sg925
(lp2071
sg926
(lp2072
sg927
(lp2073
sg928
(lp2074
sg929
(lp2075
sg930
(lp2076
sg931
(lp2077
sg932
(lp2078
sg933
(lp2079
sg934
(lp2080
sg935
(lp2081
sg936
(lp2082
sg937
(lp2083
sg938
(lp2084
sg939
(lp2085
sg940
(lp2086
sg941
(lp2087
sg942
(lp2088
sg943
(lp2089
sg944
(lp2090
sg945
(lp2091
sg946
(lp2092
sg947
(lp2093
sg948
(lp2094
sg949
(lp2095
sg950
(lp2096
sg951
(lp2097
sg952
(lp2098
sg953
(lp2099
sg954
(lp2100
sg955
(lp2101
sg956
(lp2102
sg957
(lp2103
sg958
(lp2104
sg959
(lp2105
sg960
(lp2106
sg961
(lp2107
sg962
(lp2108
sg963
(lp2109
sg964
(lp2110
sg965
(lp2111
sg966
(lp2112
sg967
(lp2113
sg968
(lp2114
sg969
(lp2115
sg970
(lp2116
sg971
(lp2117
sg972
(lp2118
sg973
(lp2119
sg974
(lp2120
sg975
(lp2121
sg976
(lp2122
sg977
(lp2123
sg978
(lp2124
sg979
(lp2125
sg980
(lp2126
sg981
(lp2127
sg982
(lp2128
sg983
(lp2129
sg984
(lp2130
sg985
(lp2131
sg986
(lp2132
sg987
(lp2133
sg988
(lp2134
sg989
(lp2135
sg990
(lp2136
sg991
(lp2137
sg992
(lp2138
sg993
(lp2139
sg994
(lp2140
sg995
(lp2141
sg996
(lp2142
sg997
(lp2143
sg998
(lp2144
sg999
(lp2145
sg1000
(lp2146
sg1001
(lp2147
sg1002
(lp2148
sg1003
(lp2149
sg1004
(lp2150
sg1005
(lp2151
sg1006
(lp2152
sg1007
(lp2153
sg1008
(lp2154
sg1009
(lp2155
sg1010
(lp2156
sg1011
(lp2157
sg1012
(lp2158
sg1013
(lp2159
sg1014
(lp2160
sg1015
(lp2161
sg1016
(lp2162
sg1017
(lp2163
sg1018
(lp2164
sg1019
(lp2165
sg1020
(lp2166
sg1021
(lp2167
sg1022
(lp2168
sg1023
(lp2169
sg1024
(lp2170
sg1025
(lp2171
sg1026
(lp2172
sg1027
(lp2173
sg1028
(lp2174
sg1029
(lp2175
sg1030
(lp2176
sg1031
(lp2177
sg1032
(lp2178
sg1033
(lp2179
sg1034
(lp2180
sg1035
(lp2181
sg1036
(lp2182
sg1037
(lp2183
sg1038
(lp2184
sg1039
(lp2185
sg1040
(lp2186
sg1041
(lp2187
sg1042
(lp2188
sg1043
(lp2189
sg1044
(lp2190
sg1045
(lp2191
sg1046
(lp2192
sg1047
(lp2193
sg1048
(lp2194
sg1049
(lp2195
sg1050
(lp2196
sg1051
(lp2197
sg1052
(lp2198
sg1053
(lp2199
sg1054
(lp2200
sg1055
(lp2201
sg1056
(lp2202
sg1057
(lp2203
sg1058
(lp2204
sg1059
(lp2205
sg1060
(lp2206
sg1061
(lp2207
sg1062
(lp2208
sg1063
(lp2209
sg1064
(lp2210
sg1065
(lp2211
sg1066
(lp2212
sg1067
(lp2213
sg1068
(lp2214
sg1069
(lp2215
sg1070
(lp2216
sg1071
(lp2217
sg1072
(lp2218
sg1073
(lp2219
sg1074
(lp2220
sg1075
(lp2221
sg1076
(lp2222
sg1077
(lp2223
sg1078
(lp2224
sg1079
(lp2225
sg1080
(lp2226
sg1081
(lp2227
sg1082
(lp2228
sg1083
(lp2229
sg1084
(lp2230
sg1085
(lp2231
sg1086
(lp2232
sg1087
(lp2233
sg1088
(lp2234
sg1089
(lp2235
sg1090
(lp2236
sg1091
(lp2237
sg1092
(lp2238
sg1093
(lp2239
sg1094
(lp2240
sg1095
(lp2241
sg1096
(lp2242
sg1097
(lp2243
sg1098
(lp2244
sg1099
(lp2245
sg1100
(lp2246
sg1101
(lp2247
sg1102
(lp2248
sg1103
(lp2249
sg1104
(lp2250
sg1105
(lp2251
sg1106
(lp2252
sg1107
(lp2253
sg1108
(lp2254
sg1109
(lp2255
sg1110
(lp2256
sg1111
(lp2257
sg1112
(lp2258
sg1113
(lp2259
sg1114
(lp2260
sg1115
(lp2261
sg1116
(lp2262
sg1117
(lp2263
sg1118
(lp2264
sg1119
(lp2265
sg1120
(lp2266
sg1121
(lp2267
sg1122
(lp2268
sg1123
(lp2269
sg1124
(lp2270
sg1125
(lp2271
sg1126
(lp2272
sg1127
(lp2273
sg1128
(lp2274
sg1129
(lp2275
sg1130
(lp2276
sg1131
(lp2277
sg1132
(lp2278
sg1133
(lp2279
sg1134
(lp2280
sg1135
(lp2281
sg1136
(lp2282
sg1137
(lp2283
sg1138
(lp2284
sg1139
(lp2285
sg1140
(lp2286
sg1141
(lp2287
sg1142
(lp2288
sg1143
(lp2289
sg1144
(lp2290
sg1145
(lp2291
sg1146
(lp2292
ssb.